(lp0
(S'elfflags'
p1
ccopy_reg
_reconstructor
p2
(cino.utils
SpaceList
p3
c__builtin__
list
p4
(lp5
S'-Os'
p6
aS'-Wl,--gc-sections'
p7
aS'-mmcu=atmega328p'
p8
atp9
Rp10
tp11
a(S'version.txt'
p12
S'/Applications/Arduino.app/Contents/Resources/Java/lib/version.txt'
p13
tp14
a(S'used_libs'
p15
(lp16
S'/Applications/Arduino.app/Contents/Resources/Java/libraries/Servo'
p17
aS'/Applications/Arduino.app/Contents/Resources/Java/libraries/Wire'
p18
aS'/Applications/Arduino.app/Contents/Resources/Java/hardware/arduino/cores/arduino'
p19
atp20
a(S'cc'
p21
S'/Applications/Arduino.app/Contents/Resources/Java/hardware/tools/avr/bin/avr-gcc'
p22
tp23
a(S'cflags'
p24
g2
(g3
g4
(lp25
g8
aS'-ffunction-sections'
p26
aS'-fdata-sections'
p27
aS'-g'
p28
ag6
aS'-w'
p29
aS'-DF_CPU=16000000L'
p30
aS'-DARDUINO=100'
p31
aS'-I/Applications/Arduino.app/Contents/Resources/Java/hardware/arduino/cores/arduino'
p32
aS'-I/Applications/Arduino.app/Contents/Resources/Java/hardware/arduino/variants/standard'
p33
aS'-I/Applications/Arduino.app/Contents/Resources/Java/libraries/Servo'
p34
aS'-I/Applications/Arduino.app/Contents/Resources/Java/libraries/Wire'
p35
aS'-I/Applications/Arduino.app/Contents/Resources/Java/libraries/Wire/utility'
p36
aS'-I/Applications/Arduino.app/Contents/Resources/Java/hardware/arduino/cores/arduino'
p37
atp38
Rp39
tp40
a(S'build_dir'
p41
S'.build/uno'
p42
tp43
a(S'arduino_core_dir'
p44
g19
tp45
a(S'boards.txt'
p46
S'/Applications/Arduino.app/Contents/Resources/Java/hardware/arduino/boards.txt'
p47
tp48
a(S'cxxflags'
p49
g2
(g3
g4
(lp50
S'-fno-exceptions'
p51
atp52
Rp53
tp54
a(S'arduino_variants_dir'
p55
S'/Applications/Arduino.app/Contents/Resources/Java/hardware/arduino/variants'
p56
tp57
a(S'ar'
p58
S'/Applications/Arduino.app/Contents/Resources/Java/hardware/tools/avr/bin/avr-ar'
p59
tp60
a(S'names'
p61
(dp62
S'cpp'
p63
S'%s.cpp'
p64
sS'obj'
p65
S'%s.o'
p66
sS'deps'
p67
S'%s.d'
p68
sS'lib'
p69
S'lib%s.a'
p70
stp71
a(S'deps'
p72
g2
(g3
g4
(lp73
S'.build/uno/src/dependencies.d'
p74
aS'.build/uno/arduino/dependencies.d'
p75
aS'.build/uno/Servo/dependencies.d'
p76
aS'.build/uno/Wire/dependencies.d'
p77
atp78
Rp79
tp80
a(S'arduino_libraries_dir'
p81
S'/Applications/Arduino.app/Contents/Resources/Java/libraries'
p82
tp83
a(S'arduino_lib_version'
p84
g2
(cino.environment
Version
p85
c__builtin__
tuple
p86
(I1
I0
tp87
tp88
Rp89
tp90
a(S'objcopy'
p91
S'/Applications/Arduino.app/Contents/Resources/Java/hardware/tools/avr/bin/avr-objcopy'
p92
tp93
a(S'board_models'
p94
cino.environment
BoardModels
p95
((lp96
(lp97
S'uno'
p98
a(dp99
S'build'
p100
(dp101
S'core'
p102
S'arduino'
p103
sS'mcu'
p104
S'atmega328p'
p105
sS'f_cpu'
p106
S'16000000L'
p107
sS'variant'
p108
S'standard'
p109
ssS'bootloader'
p110
(dp111
S'extended_fuses'
p112
S'0x05'
p113
sS'high_fuses'
p114
S'0xde'
p115
sS'low_fuses'
p116
S'0xff'
p117
sS'lock_bits'
p118
S'0x0F'
p119
sS'file'
p120
S'optiboot_atmega328.hex'
p121
sS'path'
p122
S'optiboot'
p123
sS'unlock_bits'
p124
S'0x3F'
p125
ssS'upload'
p126
(dp127
S'protocol'
p128
S'arduino'
p129
sS'maximum_size'
p130
S'32256'
p131
sS'speed'
p132
S'115200'
p133
ssS'name'
p134
S'Arduino Uno'
p135
saa(lp136
S'atmega328'
p137
a(dp138
S'build'
p139
(dp140
S'core'
p141
S'arduino'
p142
sS'mcu'
p143
S'atmega328p'
p144
sS'f_cpu'
p145
S'16000000L'
p146
sS'variant'
p147
S'standard'
p148
ssS'bootloader'
p149
(dp150
S'extended_fuses'
p151
S'0x05'
p152
sS'high_fuses'
p153
S'0xDA'
p154
sS'low_fuses'
p155
S'0xFF'
p156
sS'lock_bits'
p157
S'0x0F'
p158
sS'file'
p159
S'ATmegaBOOT_168_atmega328.hex'
p160
sS'path'
p161
S'atmega'
p162
sS'unlock_bits'
p163
S'0x3F'
p164
ssS'upload'
p165
(dp166
S'protocol'
p167
S'arduino'
p168
sS'maximum_size'
p169
S'30720'
p170
sS'speed'
p171
S'57600'
p172
ssS'name'
p173
S'Arduino Duemilanove w/ ATmega328'
p174
saa(lp175
S'diecimila'
p176
a(dp177
S'build'
p178
(dp179
S'core'
p180
S'arduino'
p181
sS'mcu'
p182
S'atmega168'
p183
sS'f_cpu'
p184
S'16000000L'
p185
sS'variant'
p186
S'standard'
p187
ssS'bootloader'
p188
(dp189
S'extended_fuses'
p190
S'0x00'
p191
sS'high_fuses'
p192
S'0xdd'
p193
sS'low_fuses'
p194
S'0xff'
p195
sS'lock_bits'
p196
S'0x0F'
p197
sS'file'
p198
S'ATmegaBOOT_168_diecimila.hex'
p199
sS'path'
p200
S'atmega'
p201
sS'unlock_bits'
p202
S'0x3F'
p203
ssS'upload'
p204
(dp205
S'protocol'
p206
S'arduino'
p207
sS'maximum_size'
p208
S'14336'
p209
sS'speed'
p210
S'19200'
p211
ssS'name'
p212
S'Arduino Diecimila or Duemilanove w/ ATmega168'
p213
saa(lp214
S'nano328'
p215
a(dp216
S'build'
p217
(dp218
S'core'
p219
S'arduino'
p220
sS'mcu'
p221
S'atmega328p'
p222
sS'f_cpu'
p223
S'16000000L'
p224
sS'variant'
p225
S'eightanaloginputs'
p226
ssS'bootloader'
p227
(dp228
S'extended_fuses'
p229
S'0x05'
p230
sS'high_fuses'
p231
S'0xDA'
p232
sS'low_fuses'
p233
S'0xFF'
p234
sS'lock_bits'
p235
S'0x0F'
p236
sS'file'
p237
S'ATmegaBOOT_168_atmega328.hex'
p238
sS'path'
p239
S'atmega'
p240
sS'unlock_bits'
p241
S'0x3F'
p242
ssS'upload'
p243
(dp244
S'protocol'
p245
S'arduino'
p246
sS'maximum_size'
p247
S'30720'
p248
sS'speed'
p249
S'57600'
p250
ssS'name'
p251
S'Arduino Nano w/ ATmega328'
p252
saa(lp253
S'nano'
p254
a(dp255
S'build'
p256
(dp257
S'core'
p258
S'arduino'
p259
sS'mcu'
p260
S'atmega168'
p261
sS'f_cpu'
p262
S'16000000L'
p263
sS'variant'
p264
S'eightanaloginputs'
p265
ssS'bootloader'
p266
(dp267
S'extended_fuses'
p268
S'0x00'
p269
sS'high_fuses'
p270
S'0xdd'
p271
sS'low_fuses'
p272
S'0xff'
p273
sS'lock_bits'
p274
S'0x0F'
p275
sS'file'
p276
S'ATmegaBOOT_168_diecimila.hex'
p277
sS'path'
p278
S'atmega'
p279
sS'unlock_bits'
p280
S'0x3F'
p281
ssS'upload'
p282
(dp283
S'protocol'
p284
S'arduino'
p285
sS'maximum_size'
p286
S'14336'
p287
sS'speed'
p288
S'19200'
p289
ssS'name'
p290
S'Arduino Nano w/ ATmega168'
p291
saa(lp292
S'mega2560'
p293
a(dp294
S'build'
p295
(dp296
S'core'
p297
S'arduino'
p298
sS'mcu'
p299
S'atmega2560'
p300
sS'f_cpu'
p301
S'16000000L'
p302
sS'variant'
p303
S'mega'
p304
ssS'bootloader'
p305
(dp306
S'extended_fuses'
p307
S'0xFD'
p308
sS'high_fuses'
p309
S'0xD8'
p310
sS'low_fuses'
p311
S'0xFF'
p312
sS'lock_bits'
p313
S'0x0F'
p314
sS'file'
p315
S'stk500boot_v2_mega2560.hex'
p316
sS'path'
p317
S'stk500v2'
p318
sS'unlock_bits'
p319
S'0x3F'
p320
ssS'upload'
p321
(dp322
S'protocol'
p323
S'stk500v2'
p324
sS'maximum_size'
p325
S'258048'
p326
sS'speed'
p327
S'115200'
p328
ssS'name'
p329
S'Arduino Mega 2560 or Mega ADK'
p330
saa(lp331
S'mega'
p332
a(dp333
S'build'
p334
(dp335
S'core'
p336
S'arduino'
p337
sS'mcu'
p338
S'atmega1280'
p339
sS'f_cpu'
p340
S'16000000L'
p341
sS'variant'
p342
S'mega'
p343
ssS'bootloader'
p344
(dp345
S'extended_fuses'
p346
S'0xF5'
p347
sS'high_fuses'
p348
S'0xDA'
p349
sS'low_fuses'
p350
S'0xFF'
p351
sS'lock_bits'
p352
S'0x0F'
p353
sS'file'
p354
S'ATmegaBOOT_168_atmega1280.hex'
p355
sS'path'
p356
S'atmega'
p357
sS'unlock_bits'
p358
S'0x3F'
p359
ssS'upload'
p360
(dp361
S'protocol'
p362
S'arduino'
p363
sS'maximum_size'
p364
S'126976'
p365
sS'speed'
p366
S'57600'
p367
ssS'name'
p368
S'Arduino Mega (ATmega1280)'
p369
saa(lp370
S'leonardo'
p371
a(dp372
S'build'
p373
(dp374
S'core'
p375
S'arduino'
p376
sS'f_cpu'
p377
S'16000000L'
p378
sS'vid'
p379
S'0x2341'
p380
sS'pid'
p381
S'0x8036'
p382
sS'variant'
p383
S'leonardo'
p384
sS'mcu'
p385
S'atmega32u4'
p386
ssS'bootloader'
p387
(dp388
S'extended_fuses'
p389
S'0xcb'
p390
sS'high_fuses'
p391
S'0xd8'
p392
sS'low_fuses'
p393
S'0xff'
p394
sS'lock_bits'
p395
S'0x2F'
p396
sS'file'
p397
S'Caterina-Leonardo.hex'
p398
sS'path'
p399
S'caterina'
p400
sS'unlock_bits'
p401
S'0x3F'
p402
ssS'upload'
p403
(dp404
S'protocol'
p405
S'avr109'
p406
sS'maximum_size'
p407
S'28672'
p408
sS'speed'
p409
S'57600'
p410
sS'disable_flushing'
p411
S'true'
p412
ssS'name'
p413
S'Arduino Leonardo'
p414
saa(lp415
S'mini328'
p416
a(dp417
S'build'
p418
(dp419
S'core'
p420
S'arduino'
p421
sS'mcu'
p422
S'atmega328p'
p423
sS'f_cpu'
p424
S'16000000L'
p425
sS'variant'
p426
S'eightanaloginputs'
p427
ssS'bootloader'
p428
(dp429
S'extended_fuses'
p430
S'0x05'
p431
sS'high_fuses'
p432
S'0xd8'
p433
sS'low_fuses'
p434
S'0xff'
p435
sS'lock_bits'
p436
S'0x0F'
p437
sS'file'
p438
S'optiboot_atmega328-Mini.hex'
p439
sS'path'
p440
S'optiboot'
p441
sS'unlock_bits'
p442
S'0x3F'
p443
ssS'upload'
p444
(dp445
S'protocol'
p446
S'arduino'
p447
sS'maximum_size'
p448
S'28672'
p449
sS'speed'
p450
S'115200'
p451
ssS'name'
p452
S'Arduino Mini w/ ATmega328'
p453
saa(lp454
S'mini'
p455
a(dp456
S'build'
p457
(dp458
S'core'
p459
S'arduino'
p460
sS'mcu'
p461
S'atmega168'
p462
sS'f_cpu'
p463
S'16000000L'
p464
sS'variant'
p465
S'eightanaloginputs'
p466
ssS'bootloader'
p467
(dp468
S'extended_fuses'
p469
S'0x00'
p470
sS'high_fuses'
p471
S'0xdd'
p472
sS'low_fuses'
p473
S'0xff'
p474
sS'lock_bits'
p475
S'0x0F'
p476
sS'file'
p477
S'ATmegaBOOT_168_ng.hex'
p478
sS'path'
p479
S'atmega'
p480
sS'unlock_bits'
p481
S'0x3F'
p482
ssS'upload'
p483
(dp484
S'protocol'
p485
S'arduino'
p486
sS'maximum_size'
p487
S'14336'
p488
sS'speed'
p489
S'19200'
p490
ssS'name'
p491
S'Arduino Mini w/ ATmega168'
p492
saa(lp493
S'ethernet'
p494
a(dp495
S'build'
p496
(dp497
S'variant'
p498
S'standard'
p499
sS'mcu'
p500
S'atmega328p'
p501
sS'f_cpu'
p502
S'16000000L'
p503
sS'core'
p504
S'arduino'
p505
ssS'bootloader'
p506
(dp507
S'extended_fuses'
p508
S'0x05'
p509
sS'high_fuses'
p510
S'0xde'
p511
sS'low_fuses'
p512
S'0xff'
p513
sS'lock_bits'
p514
S'0x0F'
p515
sS'file'
p516
S'optiboot_atmega328.hex'
p517
sS'path'
p518
S'optiboot'
p519
sS'unlock_bits'
p520
S'0x3F'
p521
ssS'upload'
p522
(dp523
S'protocol'
p524
S'arduino'
p525
sS'maximum_size'
p526
S'32256'
p527
sS'speed'
p528
S'115200'
p529
ssS'name'
p530
S'Arduino Ethernet'
p531
saa(lp532
S'fio'
p533
a(dp534
S'build'
p535
(dp536
S'core'
p537
S'arduino'
p538
sS'mcu'
p539
S'atmega328p'
p540
sS'f_cpu'
p541
S'8000000L'
p542
sS'variant'
p543
S'eightanaloginputs'
p544
ssS'bootloader'
p545
(dp546
S'extended_fuses'
p547
S'0x05'
p548
sS'high_fuses'
p549
S'0xDA'
p550
sS'low_fuses'
p551
S'0xFF'
p552
sS'lock_bits'
p553
S'0x0F'
p554
sS'file'
p555
S'ATmegaBOOT_168_atmega328_pro_8MHz.hex'
p556
sS'path'
p557
S'arduino:atmega'
p558
sS'unlock_bits'
p559
S'0x3F'
p560
ssS'upload'
p561
(dp562
S'protocol'
p563
S'arduino'
p564
sS'maximum_size'
p565
S'30720'
p566
sS'speed'
p567
S'57600'
p568
ssS'name'
p569
S'Arduino Fio'
p570
saa(lp571
S'bt328'
p572
a(dp573
S'build'
p574
(dp575
S'core'
p576
S'arduino'
p577
sS'mcu'
p578
S'atmega328p'
p579
sS'f_cpu'
p580
S'16000000L'
p581
sS'variant'
p582
S'eightanaloginputs'
p583
ssS'bootloader'
p584
(dp585
S'extended_fuses'
p586
S'0x05'
p587
sS'high_fuses'
p588
S'0xd8'
p589
sS'low_fuses'
p590
S'0xff'
p591
sS'lock_bits'
p592
S'0x0F'
p593
sS'file'
p594
S'ATmegaBOOT_168_atmega328_bt.hex'
p595
sS'path'
p596
S'bt'
p597
sS'unlock_bits'
p598
S'0x3F'
p599
ssS'upload'
p600
(dp601
S'protocol'
p602
S'arduino'
p603
sS'maximum_size'
p604
S'28672'
p605
sS'speed'
p606
S'19200'
p607
sS'disable_flushing'
p608
S'true'
p609
ssS'name'
p610
S'Arduino BT w/ ATmega328'
p611
saa(lp612
S'bt'
p613
a(dp614
S'build'
p615
(dp616
S'core'
p617
S'arduino'
p618
sS'mcu'
p619
S'atmega168'
p620
sS'f_cpu'
p621
S'16000000L'
p622
sS'variant'
p623
S'eightanaloginputs'
p624
ssS'bootloader'
p625
(dp626
S'extended_fuses'
p627
S'0x00'
p628
sS'high_fuses'
p629
S'0xdd'
p630
sS'low_fuses'
p631
S'0xff'
p632
sS'lock_bits'
p633
S'0x0F'
p634
sS'file'
p635
S'ATmegaBOOT_168.hex'
p636
sS'path'
p637
S'bt'
p638
sS'unlock_bits'
p639
S'0x3F'
p640
ssS'upload'
p641
(dp642
S'protocol'
p643
S'arduino'
p644
sS'maximum_size'
p645
S'14336'
p646
sS'speed'
p647
S'19200'
p648
sS'disable_flushing'
p649
S'true'
p650
ssS'name'
p651
S'Arduino BT w/ ATmega168'
p652
saa(lp653
S'lilypad328'
p654
a(dp655
S'build'
p656
(dp657
S'core'
p658
S'arduino'
p659
sS'mcu'
p660
S'atmega328p'
p661
sS'f_cpu'
p662
S'8000000L'
p663
sS'variant'
p664
S'standard'
p665
ssS'bootloader'
p666
(dp667
S'extended_fuses'
p668
S'0x05'
p669
sS'high_fuses'
p670
S'0xDA'
p671
sS'low_fuses'
p672
S'0xFF'
p673
sS'lock_bits'
p674
S'0x0F'
p675
sS'file'
p676
S'ATmegaBOOT_168_atmega328_pro_8MHz.hex'
p677
sS'path'
p678
S'atmega'
p679
sS'unlock_bits'
p680
S'0x3F'
p681
ssS'upload'
p682
(dp683
S'protocol'
p684
S'arduino'
p685
sS'maximum_size'
p686
S'30720'
p687
sS'speed'
p688
S'57600'
p689
ssS'name'
p690
S'LilyPad Arduino w/ ATmega328'
p691
saa(lp692
S'lilypad'
p693
a(dp694
S'build'
p695
(dp696
S'core'
p697
S'arduino'
p698
sS'mcu'
p699
S'atmega168'
p700
sS'f_cpu'
p701
S'8000000L'
p702
sS'variant'
p703
S'standard'
p704
ssS'bootloader'
p705
(dp706
S'extended_fuses'
p707
S'0x00'
p708
sS'high_fuses'
p709
S'0xdd'
p710
sS'low_fuses'
p711
S'0xe2'
p712
sS'lock_bits'
p713
S'0x0F'
p714
sS'file'
p715
S'LilyPadBOOT_168.hex'
p716
sS'path'
p717
S'lilypad'
p718
sS'unlock_bits'
p719
S'0x3F'
p720
ssS'upload'
p721
(dp722
S'protocol'
p723
S'arduino'
p724
sS'maximum_size'
p725
S'14336'
p726
sS'speed'
p727
S'19200'
p728
ssS'name'
p729
S'LilyPad Arduino w/ ATmega168'
p730
saa(lp731
S'pro5v328'
p732
a(dp733
S'build'
p734
(dp735
S'core'
p736
S'arduino'
p737
sS'mcu'
p738
S'atmega328p'
p739
sS'f_cpu'
p740
S'16000000L'
p741
sS'variant'
p742
S'standard'
p743
ssS'bootloader'
p744
(dp745
S'extended_fuses'
p746
S'0x05'
p747
sS'high_fuses'
p748
S'0xDA'
p749
sS'low_fuses'
p750
S'0xFF'
p751
sS'lock_bits'
p752
S'0x0F'
p753
sS'file'
p754
S'ATmegaBOOT_168_atmega328.hex'
p755
sS'path'
p756
S'atmega'
p757
sS'unlock_bits'
p758
S'0x3F'
p759
ssS'upload'
p760
(dp761
S'protocol'
p762
S'arduino'
p763
sS'maximum_size'
p764
S'30720'
p765
sS'speed'
p766
S'57600'
p767
ssS'name'
p768
S'Arduino Pro or Pro Mini (5V, 16 MHz) w/ ATmega328'
p769
saa(lp770
S'pro5v'
p771
a(dp772
S'build'
p773
(dp774
S'core'
p775
S'arduino'
p776
sS'mcu'
p777
S'atmega168'
p778
sS'f_cpu'
p779
S'16000000L'
p780
sS'variant'
p781
S'standard'
p782
ssS'bootloader'
p783
(dp784
S'extended_fuses'
p785
S'0x00'
p786
sS'high_fuses'
p787
S'0xdd'
p788
sS'low_fuses'
p789
S'0xff'
p790
sS'lock_bits'
p791
S'0x0F'
p792
sS'file'
p793
S'ATmegaBOOT_168_diecimila.hex'
p794
sS'path'
p795
S'atmega'
p796
sS'unlock_bits'
p797
S'0x3F'
p798
ssS'upload'
p799
(dp800
S'protocol'
p801
S'arduino'
p802
sS'maximum_size'
p803
S'14336'
p804
sS'speed'
p805
S'19200'
p806
ssS'name'
p807
S'Arduino Pro or Pro Mini (5V, 16 MHz) w/ ATmega168'
p808
saa(lp809
S'pro328'
p810
a(dp811
S'build'
p812
(dp813
S'core'
p814
S'arduino'
p815
sS'mcu'
p816
S'atmega328p'
p817
sS'f_cpu'
p818
S'8000000L'
p819
sS'variant'
p820
S'standard'
p821
ssS'bootloader'
p822
(dp823
S'extended_fuses'
p824
S'0x05'
p825
sS'high_fuses'
p826
S'0xDA'
p827
sS'low_fuses'
p828
S'0xFF'
p829
sS'lock_bits'
p830
S'0x0F'
p831
sS'file'
p832
S'ATmegaBOOT_168_atmega328_pro_8MHz.hex'
p833
sS'path'
p834
S'atmega'
p835
sS'unlock_bits'
p836
S'0x3F'
p837
ssS'upload'
p838
(dp839
S'protocol'
p840
S'arduino'
p841
sS'maximum_size'
p842
S'30720'
p843
sS'speed'
p844
S'57600'
p845
ssS'name'
p846
S'Arduino Pro or Pro Mini (3.3V, 8 MHz) w/ ATmega328'
p847
saa(lp848
S'pro'
p849
a(dp850
S'build'
p851
(dp852
S'core'
p853
S'arduino'
p854
sS'mcu'
p855
S'atmega168'
p856
sS'f_cpu'
p857
S'8000000L'
p858
sS'variant'
p859
S'standard'
p860
ssS'bootloader'
p861
(dp862
S'extended_fuses'
p863
S'0x00'
p864
sS'high_fuses'
p865
S'0xdd'
p866
sS'low_fuses'
p867
S'0xc6'
p868
sS'lock_bits'
p869
S'0x0F'
p870
sS'file'
p871
S'ATmegaBOOT_168_pro_8MHz.hex'
p872
sS'path'
p873
S'atmega'
p874
sS'unlock_bits'
p875
S'0x3F'
p876
ssS'upload'
p877
(dp878
S'protocol'
p879
S'arduino'
p880
sS'maximum_size'
p881
S'14336'
p882
sS'speed'
p883
S'19200'
p884
ssS'name'
p885
S'Arduino Pro or Pro Mini (3.3V, 8 MHz) w/ ATmega168'
p886
saa(lp887
S'atmega168'
p888
a(dp889
S'build'
p890
(dp891
S'core'
p892
S'arduino'
p893
sS'mcu'
p894
S'atmega168'
p895
sS'f_cpu'
p896
S'16000000L'
p897
sS'variant'
p898
S'standard'
p899
ssS'bootloader'
p900
(dp901
S'extended_fuses'
p902
S'0x00'
p903
sS'high_fuses'
p904
S'0xdd'
p905
sS'low_fuses'
p906
S'0xff'
p907
sS'lock_bits'
p908
S'0x0F'
p909
sS'file'
p910
S'ATmegaBOOT_168_ng.hex'
p911
sS'path'
p912
S'atmega'
p913
sS'unlock_bits'
p914
S'0x3F'
p915
ssS'upload'
p916
(dp917
S'protocol'
p918
S'arduino'
p919
sS'maximum_size'
p920
S'14336'
p921
sS'speed'
p922
S'19200'
p923
ssS'name'
p924
S'Arduino NG or older w/ ATmega168'
p925
saa(lp926
S'atmega8'
p927
a(dp928
S'build'
p929
(dp930
S'core'
p931
S'arduino'
p932
sS'mcu'
p933
S'atmega8'
p934
sS'f_cpu'
p935
S'16000000L'
p936
sS'variant'
p937
S'standard'
p938
ssS'bootloader'
p939
(dp940
S'high_fuses'
p941
S'0xca'
p942
sS'low_fuses'
p943
S'0xdf'
p944
sS'lock_bits'
p945
S'0x0F'
p946
sS'file'
p947
S'ATmegaBOOT.hex'
p948
sS'path'
p949
S'atmega8'
p950
sS'unlock_bits'
p951
S'0x3F'
p952
ssS'upload'
p953
(dp954
S'protocol'
p955
S'arduino'
p956
sS'maximum_size'
p957
S'7168'
p958
sS'speed'
p959
S'19200'
p960
ssS'name'
p961
S'Arduino NG or older w/ ATmega8'
p962
saatp963
Rp964
(dp965
S'default'
p966
S'uno'
p967
sbtp968
a(S'cxx'
p969
S'/Applications/Arduino.app/Contents/Resources/Java/hardware/tools/avr/bin/avr-g++'
p970
tp971
a.