(lp0
(S'elfflags'
p1
ccopy_reg
_reconstructor
p2
(cino.utils
SpaceList
p3
c__builtin__
list
p4
(lp5
S'-Os'
p6
aS'-Wl,--gc-sections'
p7
aS'-mmcu=atmega328p'
p8
atp9
Rp10
tp11
a(S'version.txt'
p12
S'/Applications/Arduino.app/Contents/Resources/Java/lib/version.txt'
p13
tp14
a(S'used_libs'
p15
(lp16
S'/Applications/Arduino.app/Contents/Resources/Java/libraries/Servo'
p17
aS'/Applications/Arduino.app/Contents/Resources/Java/libraries/Wire'
p18
aS'/Applications/Arduino.app/Contents/Resources/Java/hardware/arduino/cores/arduino'
p19
atp20
a(S'cc'
p21
S'/Applications/Arduino.app/Contents/Resources/Java/hardware/tools/avr/bin/avr-gcc'
p22
tp23
a(S'build_dir'
p24
S'.build/uno'
p25
tp26
a(S'arduino_core_dir'
p27
g19
tp28
a(S'boards.txt'
p29
S'/Applications/Arduino.app/Contents/Resources/Java/hardware/arduino/boards.txt'
p30
tp31
a(S'cxxflags'
p32
g2
(g3
g4
(lp33
S'-fno-exceptions'
p34
atp35
Rp36
tp37
a(S'arduino_variants_dir'
p38
S'/Applications/Arduino.app/Contents/Resources/Java/hardware/arduino/variants'
p39
tp40
a(S'deps'
p41
g2
(g3
g4
(lp42
S'.build/uno/src/dependencies.d'
p43
aS'.build/uno/arduino/dependencies.d'
p44
aS'.build/uno/Servo/dependencies.d'
p45
aS'.build/uno/Wire/dependencies.d'
p46
atp47
Rp48
tp49
a(S'ar'
p50
S'/Applications/Arduino.app/Contents/Resources/Java/hardware/tools/avr/bin/avr-ar'
p51
tp52
a(S'names'
p53
(dp54
S'cpp'
p55
S'%s.cpp'
p56
sS'obj'
p57
S'%s.o'
p58
sS'deps'
p59
S'%s.d'
p60
sS'lib'
p61
S'lib%s.a'
p62
stp63
a(S'cflags'
p64
g2
(g3
g4
(lp65
g8
aS'-ffunction-sections'
p66
aS'-fdata-sections'
p67
aS'-g'
p68
ag6
aS'-w'
p69
aS'-DF_CPU=16000000L'
p70
aS'-DARDUINO=100'
p71
aS'-I/Applications/Arduino.app/Contents/Resources/Java/hardware/arduino/cores/arduino'
p72
aS'-I/Applications/Arduino.app/Contents/Resources/Java/hardware/arduino/variants/standard'
p73
aS'-I/Applications/Arduino.app/Contents/Resources/Java/libraries/Servo'
p74
aS'-I/Applications/Arduino.app/Contents/Resources/Java/libraries/Wire'
p75
aS'-I/Applications/Arduino.app/Contents/Resources/Java/libraries/Wire/utility'
p76
aS'-I/Applications/Arduino.app/Contents/Resources/Java/hardware/arduino/cores/arduino'
p77
atp78
Rp79
tp80
a(S'arduino_libraries_dir'
p81
S'/Applications/Arduino.app/Contents/Resources/Java/libraries'
p82
tp83
a(S'arduino_lib_version'
p84
g2
(cino.environment
Version
p85
c__builtin__
tuple
p86
(I1
I0
tp87
tp88
Rp89
tp90
a(S'objcopy'
p91
S'/Applications/Arduino.app/Contents/Resources/Java/hardware/tools/avr/bin/avr-objcopy'
p92
tp93
a(S'board_models'
p94
cino.environment
BoardModels
p95
((lp96
(lp97
S'uno'
p98
a(dp99
S'bootloader'
p100
(dp101
S'extended_fuses'
p102
S'0x05'
p103
sS'high_fuses'
p104
S'0xde'
p105
sS'low_fuses'
p106
S'0xff'
p107
sS'lock_bits'
p108
S'0x0F'
p109
sS'file'
p110
S'optiboot_atmega328.hex'
p111
sS'path'
p112
S'optiboot'
p113
sS'unlock_bits'
p114
S'0x3F'
p115
ssS'build'
p116
(dp117
S'core'
p118
S'arduino'
p119
sS'mcu'
p120
S'atmega328p'
p121
sS'f_cpu'
p122
S'16000000L'
p123
sS'variant'
p124
S'standard'
p125
ssS'name'
p126
S'Arduino Uno'
p127
sS'upload'
p128
(dp129
S'speed'
p130
S'115200'
p131
sS'maximum_size'
p132
S'32256'
p133
sS'protocol'
p134
S'arduino'
p135
ssaa(lp136
S'atmega328'
p137
a(dp138
S'bootloader'
p139
(dp140
S'extended_fuses'
p141
S'0x05'
p142
sS'high_fuses'
p143
S'0xDA'
p144
sS'low_fuses'
p145
S'0xFF'
p146
sS'lock_bits'
p147
S'0x0F'
p148
sS'file'
p149
S'ATmegaBOOT_168_atmega328.hex'
p150
sS'path'
p151
S'atmega'
p152
sS'unlock_bits'
p153
S'0x3F'
p154
ssS'build'
p155
(dp156
S'core'
p157
S'arduino'
p158
sS'mcu'
p159
S'atmega328p'
p160
sS'f_cpu'
p161
S'16000000L'
p162
sS'variant'
p163
S'standard'
p164
ssS'name'
p165
S'Arduino Duemilanove w/ ATmega328'
p166
sS'upload'
p167
(dp168
S'speed'
p169
S'57600'
p170
sS'maximum_size'
p171
S'30720'
p172
sS'protocol'
p173
S'arduino'
p174
ssaa(lp175
S'diecimila'
p176
a(dp177
S'bootloader'
p178
(dp179
S'extended_fuses'
p180
S'0x00'
p181
sS'high_fuses'
p182
S'0xdd'
p183
sS'low_fuses'
p184
S'0xff'
p185
sS'lock_bits'
p186
S'0x0F'
p187
sS'file'
p188
S'ATmegaBOOT_168_diecimila.hex'
p189
sS'path'
p190
S'atmega'
p191
sS'unlock_bits'
p192
S'0x3F'
p193
ssS'build'
p194
(dp195
S'core'
p196
S'arduino'
p197
sS'mcu'
p198
S'atmega168'
p199
sS'f_cpu'
p200
S'16000000L'
p201
sS'variant'
p202
S'standard'
p203
ssS'name'
p204
S'Arduino Diecimila or Duemilanove w/ ATmega168'
p205
sS'upload'
p206
(dp207
S'speed'
p208
S'19200'
p209
sS'maximum_size'
p210
S'14336'
p211
sS'protocol'
p212
S'arduino'
p213
ssaa(lp214
S'nano328'
p215
a(dp216
S'bootloader'
p217
(dp218
S'extended_fuses'
p219
S'0x05'
p220
sS'high_fuses'
p221
S'0xDA'
p222
sS'low_fuses'
p223
S'0xFF'
p224
sS'lock_bits'
p225
S'0x0F'
p226
sS'file'
p227
S'ATmegaBOOT_168_atmega328.hex'
p228
sS'path'
p229
S'atmega'
p230
sS'unlock_bits'
p231
S'0x3F'
p232
ssS'build'
p233
(dp234
S'core'
p235
S'arduino'
p236
sS'mcu'
p237
S'atmega328p'
p238
sS'f_cpu'
p239
S'16000000L'
p240
sS'variant'
p241
S'eightanaloginputs'
p242
ssS'name'
p243
S'Arduino Nano w/ ATmega328'
p244
sS'upload'
p245
(dp246
S'speed'
p247
S'57600'
p248
sS'maximum_size'
p249
S'30720'
p250
sS'protocol'
p251
S'arduino'
p252
ssaa(lp253
S'nano'
p254
a(dp255
S'bootloader'
p256
(dp257
S'extended_fuses'
p258
S'0x00'
p259
sS'high_fuses'
p260
S'0xdd'
p261
sS'low_fuses'
p262
S'0xff'
p263
sS'lock_bits'
p264
S'0x0F'
p265
sS'file'
p266
S'ATmegaBOOT_168_diecimila.hex'
p267
sS'path'
p268
S'atmega'
p269
sS'unlock_bits'
p270
S'0x3F'
p271
ssS'build'
p272
(dp273
S'core'
p274
S'arduino'
p275
sS'mcu'
p276
S'atmega168'
p277
sS'f_cpu'
p278
S'16000000L'
p279
sS'variant'
p280
S'eightanaloginputs'
p281
ssS'name'
p282
S'Arduino Nano w/ ATmega168'
p283
sS'upload'
p284
(dp285
S'speed'
p286
S'19200'
p287
sS'maximum_size'
p288
S'14336'
p289
sS'protocol'
p290
S'arduino'
p291
ssaa(lp292
S'mega2560'
p293
a(dp294
S'bootloader'
p295
(dp296
S'extended_fuses'
p297
S'0xFD'
p298
sS'high_fuses'
p299
S'0xD8'
p300
sS'low_fuses'
p301
S'0xFF'
p302
sS'lock_bits'
p303
S'0x0F'
p304
sS'file'
p305
S'stk500boot_v2_mega2560.hex'
p306
sS'path'
p307
S'stk500v2'
p308
sS'unlock_bits'
p309
S'0x3F'
p310
ssS'build'
p311
(dp312
S'core'
p313
S'arduino'
p314
sS'mcu'
p315
S'atmega2560'
p316
sS'f_cpu'
p317
S'16000000L'
p318
sS'variant'
p319
S'mega'
p320
ssS'name'
p321
S'Arduino Mega 2560 or Mega ADK'
p322
sS'upload'
p323
(dp324
S'speed'
p325
S'115200'
p326
sS'maximum_size'
p327
S'258048'
p328
sS'protocol'
p329
S'stk500v2'
p330
ssaa(lp331
S'mega'
p332
a(dp333
S'bootloader'
p334
(dp335
S'extended_fuses'
p336
S'0xF5'
p337
sS'high_fuses'
p338
S'0xDA'
p339
sS'low_fuses'
p340
S'0xFF'
p341
sS'lock_bits'
p342
S'0x0F'
p343
sS'file'
p344
S'ATmegaBOOT_168_atmega1280.hex'
p345
sS'path'
p346
S'atmega'
p347
sS'unlock_bits'
p348
S'0x3F'
p349
ssS'build'
p350
(dp351
S'core'
p352
S'arduino'
p353
sS'mcu'
p354
S'atmega1280'
p355
sS'f_cpu'
p356
S'16000000L'
p357
sS'variant'
p358
S'mega'
p359
ssS'name'
p360
S'Arduino Mega (ATmega1280)'
p361
sS'upload'
p362
(dp363
S'speed'
p364
S'57600'
p365
sS'maximum_size'
p366
S'126976'
p367
sS'protocol'
p368
S'arduino'
p369
ssaa(lp370
S'leonardo'
p371
a(dp372
S'bootloader'
p373
(dp374
S'extended_fuses'
p375
S'0xcb'
p376
sS'high_fuses'
p377
S'0xd8'
p378
sS'low_fuses'
p379
S'0xff'
p380
sS'lock_bits'
p381
S'0x2F'
p382
sS'file'
p383
S'Caterina-Leonardo.hex'
p384
sS'path'
p385
S'caterina'
p386
sS'unlock_bits'
p387
S'0x3F'
p388
ssS'build'
p389
(dp390
S'core'
p391
S'arduino'
p392
sS'f_cpu'
p393
S'16000000L'
p394
sS'vid'
p395
S'0x2341'
p396
sS'pid'
p397
S'0x8036'
p398
sS'variant'
p399
S'leonardo'
p400
sS'mcu'
p401
S'atmega32u4'
p402
ssS'name'
p403
S'Arduino Leonardo'
p404
sS'upload'
p405
(dp406
S'speed'
p407
S'57600'
p408
sS'maximum_size'
p409
S'28672'
p410
sS'protocol'
p411
S'avr109'
p412
sS'disable_flushing'
p413
S'true'
p414
ssaa(lp415
S'mini328'
p416
a(dp417
S'bootloader'
p418
(dp419
S'extended_fuses'
p420
S'0x05'
p421
sS'high_fuses'
p422
S'0xd8'
p423
sS'low_fuses'
p424
S'0xff'
p425
sS'lock_bits'
p426
S'0x0F'
p427
sS'file'
p428
S'optiboot_atmega328-Mini.hex'
p429
sS'path'
p430
S'optiboot'
p431
sS'unlock_bits'
p432
S'0x3F'
p433
ssS'build'
p434
(dp435
S'core'
p436
S'arduino'
p437
sS'mcu'
p438
S'atmega328p'
p439
sS'f_cpu'
p440
S'16000000L'
p441
sS'variant'
p442
S'eightanaloginputs'
p443
ssS'name'
p444
S'Arduino Mini w/ ATmega328'
p445
sS'upload'
p446
(dp447
S'speed'
p448
S'115200'
p449
sS'maximum_size'
p450
S'28672'
p451
sS'protocol'
p452
S'arduino'
p453
ssaa(lp454
S'mini'
p455
a(dp456
S'bootloader'
p457
(dp458
S'extended_fuses'
p459
S'0x00'
p460
sS'high_fuses'
p461
S'0xdd'
p462
sS'low_fuses'
p463
S'0xff'
p464
sS'lock_bits'
p465
S'0x0F'
p466
sS'file'
p467
S'ATmegaBOOT_168_ng.hex'
p468
sS'path'
p469
S'atmega'
p470
sS'unlock_bits'
p471
S'0x3F'
p472
ssS'build'
p473
(dp474
S'core'
p475
S'arduino'
p476
sS'mcu'
p477
S'atmega168'
p478
sS'f_cpu'
p479
S'16000000L'
p480
sS'variant'
p481
S'eightanaloginputs'
p482
ssS'name'
p483
S'Arduino Mini w/ ATmega168'
p484
sS'upload'
p485
(dp486
S'speed'
p487
S'19200'
p488
sS'maximum_size'
p489
S'14336'
p490
sS'protocol'
p491
S'arduino'
p492
ssaa(lp493
S'ethernet'
p494
a(dp495
S'bootloader'
p496
(dp497
S'extended_fuses'
p498
S'0x05'
p499
sS'high_fuses'
p500
S'0xde'
p501
sS'low_fuses'
p502
S'0xff'
p503
sS'lock_bits'
p504
S'0x0F'
p505
sS'file'
p506
S'optiboot_atmega328.hex'
p507
sS'path'
p508
S'optiboot'
p509
sS'unlock_bits'
p510
S'0x3F'
p511
ssS'build'
p512
(dp513
S'f_cpu'
p514
S'16000000L'
p515
sS'mcu'
p516
S'atmega328p'
p517
sS'variant'
p518
S'standard'
p519
sS'core'
p520
S'arduino'
p521
ssS'name'
p522
S'Arduino Ethernet'
p523
sS'upload'
p524
(dp525
S'speed'
p526
S'115200'
p527
sS'maximum_size'
p528
S'32256'
p529
sS'protocol'
p530
S'arduino'
p531
ssaa(lp532
S'fio'
p533
a(dp534
S'bootloader'
p535
(dp536
S'extended_fuses'
p537
S'0x05'
p538
sS'high_fuses'
p539
S'0xDA'
p540
sS'low_fuses'
p541
S'0xFF'
p542
sS'lock_bits'
p543
S'0x0F'
p544
sS'file'
p545
S'ATmegaBOOT_168_atmega328_pro_8MHz.hex'
p546
sS'path'
p547
S'arduino:atmega'
p548
sS'unlock_bits'
p549
S'0x3F'
p550
ssS'build'
p551
(dp552
S'core'
p553
S'arduino'
p554
sS'mcu'
p555
S'atmega328p'
p556
sS'f_cpu'
p557
S'8000000L'
p558
sS'variant'
p559
S'eightanaloginputs'
p560
ssS'name'
p561
S'Arduino Fio'
p562
sS'upload'
p563
(dp564
S'speed'
p565
S'57600'
p566
sS'maximum_size'
p567
S'30720'
p568
sS'protocol'
p569
S'arduino'
p570
ssaa(lp571
S'bt328'
p572
a(dp573
S'bootloader'
p574
(dp575
S'extended_fuses'
p576
S'0x05'
p577
sS'high_fuses'
p578
S'0xd8'
p579
sS'low_fuses'
p580
S'0xff'
p581
sS'lock_bits'
p582
S'0x0F'
p583
sS'file'
p584
S'ATmegaBOOT_168_atmega328_bt.hex'
p585
sS'path'
p586
S'bt'
p587
sS'unlock_bits'
p588
S'0x3F'
p589
ssS'build'
p590
(dp591
S'core'
p592
S'arduino'
p593
sS'mcu'
p594
S'atmega328p'
p595
sS'f_cpu'
p596
S'16000000L'
p597
sS'variant'
p598
S'eightanaloginputs'
p599
ssS'name'
p600
S'Arduino BT w/ ATmega328'
p601
sS'upload'
p602
(dp603
S'speed'
p604
S'19200'
p605
sS'maximum_size'
p606
S'28672'
p607
sS'protocol'
p608
S'arduino'
p609
sS'disable_flushing'
p610
S'true'
p611
ssaa(lp612
S'bt'
p613
a(dp614
S'bootloader'
p615
(dp616
S'extended_fuses'
p617
S'0x00'
p618
sS'high_fuses'
p619
S'0xdd'
p620
sS'low_fuses'
p621
S'0xff'
p622
sS'lock_bits'
p623
S'0x0F'
p624
sS'file'
p625
S'ATmegaBOOT_168.hex'
p626
sS'path'
p627
S'bt'
p628
sS'unlock_bits'
p629
S'0x3F'
p630
ssS'build'
p631
(dp632
S'core'
p633
S'arduino'
p634
sS'mcu'
p635
S'atmega168'
p636
sS'f_cpu'
p637
S'16000000L'
p638
sS'variant'
p639
S'eightanaloginputs'
p640
ssS'name'
p641
S'Arduino BT w/ ATmega168'
p642
sS'upload'
p643
(dp644
S'speed'
p645
S'19200'
p646
sS'maximum_size'
p647
S'14336'
p648
sS'protocol'
p649
S'arduino'
p650
sS'disable_flushing'
p651
S'true'
p652
ssaa(lp653
S'lilypad328'
p654
a(dp655
S'bootloader'
p656
(dp657
S'extended_fuses'
p658
S'0x05'
p659
sS'high_fuses'
p660
S'0xDA'
p661
sS'low_fuses'
p662
S'0xFF'
p663
sS'lock_bits'
p664
S'0x0F'
p665
sS'file'
p666
S'ATmegaBOOT_168_atmega328_pro_8MHz.hex'
p667
sS'path'
p668
S'atmega'
p669
sS'unlock_bits'
p670
S'0x3F'
p671
ssS'build'
p672
(dp673
S'core'
p674
S'arduino'
p675
sS'mcu'
p676
S'atmega328p'
p677
sS'f_cpu'
p678
S'8000000L'
p679
sS'variant'
p680
S'standard'
p681
ssS'name'
p682
S'LilyPad Arduino w/ ATmega328'
p683
sS'upload'
p684
(dp685
S'speed'
p686
S'57600'
p687
sS'maximum_size'
p688
S'30720'
p689
sS'protocol'
p690
S'arduino'
p691
ssaa(lp692
S'lilypad'
p693
a(dp694
S'bootloader'
p695
(dp696
S'extended_fuses'
p697
S'0x00'
p698
sS'high_fuses'
p699
S'0xdd'
p700
sS'low_fuses'
p701
S'0xe2'
p702
sS'lock_bits'
p703
S'0x0F'
p704
sS'file'
p705
S'LilyPadBOOT_168.hex'
p706
sS'path'
p707
S'lilypad'
p708
sS'unlock_bits'
p709
S'0x3F'
p710
ssS'build'
p711
(dp712
S'core'
p713
S'arduino'
p714
sS'mcu'
p715
S'atmega168'
p716
sS'f_cpu'
p717
S'8000000L'
p718
sS'variant'
p719
S'standard'
p720
ssS'name'
p721
S'LilyPad Arduino w/ ATmega168'
p722
sS'upload'
p723
(dp724
S'speed'
p725
S'19200'
p726
sS'maximum_size'
p727
S'14336'
p728
sS'protocol'
p729
S'arduino'
p730
ssaa(lp731
S'pro5v328'
p732
a(dp733
S'bootloader'
p734
(dp735
S'extended_fuses'
p736
S'0x05'
p737
sS'high_fuses'
p738
S'0xDA'
p739
sS'low_fuses'
p740
S'0xFF'
p741
sS'lock_bits'
p742
S'0x0F'
p743
sS'file'
p744
S'ATmegaBOOT_168_atmega328.hex'
p745
sS'path'
p746
S'atmega'
p747
sS'unlock_bits'
p748
S'0x3F'
p749
ssS'build'
p750
(dp751
S'core'
p752
S'arduino'
p753
sS'mcu'
p754
S'atmega328p'
p755
sS'f_cpu'
p756
S'16000000L'
p757
sS'variant'
p758
S'standard'
p759
ssS'name'
p760
S'Arduino Pro or Pro Mini (5V, 16 MHz) w/ ATmega328'
p761
sS'upload'
p762
(dp763
S'speed'
p764
S'57600'
p765
sS'maximum_size'
p766
S'30720'
p767
sS'protocol'
p768
S'arduino'
p769
ssaa(lp770
S'pro5v'
p771
a(dp772
S'bootloader'
p773
(dp774
S'extended_fuses'
p775
S'0x00'
p776
sS'high_fuses'
p777
S'0xdd'
p778
sS'low_fuses'
p779
S'0xff'
p780
sS'lock_bits'
p781
S'0x0F'
p782
sS'file'
p783
S'ATmegaBOOT_168_diecimila.hex'
p784
sS'path'
p785
S'atmega'
p786
sS'unlock_bits'
p787
S'0x3F'
p788
ssS'build'
p789
(dp790
S'core'
p791
S'arduino'
p792
sS'mcu'
p793
S'atmega168'
p794
sS'f_cpu'
p795
S'16000000L'
p796
sS'variant'
p797
S'standard'
p798
ssS'name'
p799
S'Arduino Pro or Pro Mini (5V, 16 MHz) w/ ATmega168'
p800
sS'upload'
p801
(dp802
S'speed'
p803
S'19200'
p804
sS'maximum_size'
p805
S'14336'
p806
sS'protocol'
p807
S'arduino'
p808
ssaa(lp809
S'pro328'
p810
a(dp811
S'bootloader'
p812
(dp813
S'extended_fuses'
p814
S'0x05'
p815
sS'high_fuses'
p816
S'0xDA'
p817
sS'low_fuses'
p818
S'0xFF'
p819
sS'lock_bits'
p820
S'0x0F'
p821
sS'file'
p822
S'ATmegaBOOT_168_atmega328_pro_8MHz.hex'
p823
sS'path'
p824
S'atmega'
p825
sS'unlock_bits'
p826
S'0x3F'
p827
ssS'build'
p828
(dp829
S'core'
p830
S'arduino'
p831
sS'mcu'
p832
S'atmega328p'
p833
sS'f_cpu'
p834
S'8000000L'
p835
sS'variant'
p836
S'standard'
p837
ssS'name'
p838
S'Arduino Pro or Pro Mini (3.3V, 8 MHz) w/ ATmega328'
p839
sS'upload'
p840
(dp841
S'speed'
p842
S'57600'
p843
sS'maximum_size'
p844
S'30720'
p845
sS'protocol'
p846
S'arduino'
p847
ssaa(lp848
S'pro'
p849
a(dp850
S'bootloader'
p851
(dp852
S'extended_fuses'
p853
S'0x00'
p854
sS'high_fuses'
p855
S'0xdd'
p856
sS'low_fuses'
p857
S'0xc6'
p858
sS'lock_bits'
p859
S'0x0F'
p860
sS'file'
p861
S'ATmegaBOOT_168_pro_8MHz.hex'
p862
sS'path'
p863
S'atmega'
p864
sS'unlock_bits'
p865
S'0x3F'
p866
ssS'build'
p867
(dp868
S'core'
p869
S'arduino'
p870
sS'mcu'
p871
S'atmega168'
p872
sS'f_cpu'
p873
S'8000000L'
p874
sS'variant'
p875
S'standard'
p876
ssS'name'
p877
S'Arduino Pro or Pro Mini (3.3V, 8 MHz) w/ ATmega168'
p878
sS'upload'
p879
(dp880
S'speed'
p881
S'19200'
p882
sS'maximum_size'
p883
S'14336'
p884
sS'protocol'
p885
S'arduino'
p886
ssaa(lp887
S'atmega168'
p888
a(dp889
S'bootloader'
p890
(dp891
S'extended_fuses'
p892
S'0x00'
p893
sS'high_fuses'
p894
S'0xdd'
p895
sS'low_fuses'
p896
S'0xff'
p897
sS'lock_bits'
p898
S'0x0F'
p899
sS'file'
p900
S'ATmegaBOOT_168_ng.hex'
p901
sS'path'
p902
S'atmega'
p903
sS'unlock_bits'
p904
S'0x3F'
p905
ssS'build'
p906
(dp907
S'core'
p908
S'arduino'
p909
sS'mcu'
p910
S'atmega168'
p911
sS'f_cpu'
p912
S'16000000L'
p913
sS'variant'
p914
S'standard'
p915
ssS'name'
p916
S'Arduino NG or older w/ ATmega168'
p917
sS'upload'
p918
(dp919
S'speed'
p920
S'19200'
p921
sS'maximum_size'
p922
S'14336'
p923
sS'protocol'
p924
S'arduino'
p925
ssaa(lp926
S'atmega8'
p927
a(dp928
S'bootloader'
p929
(dp930
S'high_fuses'
p931
S'0xca'
p932
sS'low_fuses'
p933
S'0xdf'
p934
sS'lock_bits'
p935
S'0x0F'
p936
sS'file'
p937
S'ATmegaBOOT.hex'
p938
sS'path'
p939
S'atmega8'
p940
sS'unlock_bits'
p941
S'0x3F'
p942
ssS'build'
p943
(dp944
S'core'
p945
S'arduino'
p946
sS'mcu'
p947
S'atmega8'
p948
sS'f_cpu'
p949
S'16000000L'
p950
sS'variant'
p951
S'standard'
p952
ssS'name'
p953
S'Arduino NG or older w/ ATmega8'
p954
sS'upload'
p955
(dp956
S'speed'
p957
S'19200'
p958
sS'maximum_size'
p959
S'7168'
p960
sS'protocol'
p961
S'arduino'
p962
ssaatp963
Rp964
(dp965
S'default'
p966
S'uno'
p967
sbtp968
a(S'cxx'
p969
S'/Applications/Arduino.app/Contents/Resources/Java/hardware/tools/avr/bin/avr-g++'
p970
tp971
a.