(lp0
(S'elfflags'
p1
ccopy_reg
_reconstructor
p2
(cino.utils
SpaceList
p3
c__builtin__
list
p4
(lp5
S'-Os'
p6
aS'-Wl,--gc-sections'
p7
aS'-mmcu=atmega328p'
p8
atp9
Rp10
tp11
a(S'version.txt'
p12
S'/Applications/Arduino.app/Contents/Resources/Java/lib/version.txt'
p13
tp14
a(S'used_libs'
p15
(lp16
S'/Applications/Arduino.app/Contents/Resources/Java/libraries/Servo'
p17
aS'/Applications/Arduino.app/Contents/Resources/Java/libraries/Wire'
p18
aS'/Applications/Arduino.app/Contents/Resources/Java/hardware/arduino/cores/arduino'
p19
atp20
a(S'cc'
p21
S'/Applications/Arduino.app/Contents/Resources/Java/hardware/tools/avr/bin/avr-gcc'
p22
tp23
a(S'cflags'
p24
g2
(g3
g4
(lp25
g8
aS'-ffunction-sections'
p26
aS'-fdata-sections'
p27
aS'-g'
p28
ag6
aS'-w'
p29
aS'-DF_CPU=16000000L'
p30
aS'-DARDUINO=100'
p31
aS'-I/Applications/Arduino.app/Contents/Resources/Java/hardware/arduino/cores/arduino'
p32
aS'-I/Applications/Arduino.app/Contents/Resources/Java/hardware/arduino/variants/standard'
p33
aS'-I/Applications/Arduino.app/Contents/Resources/Java/libraries/Servo'
p34
aS'-I/Applications/Arduino.app/Contents/Resources/Java/libraries/Wire'
p35
aS'-I/Applications/Arduino.app/Contents/Resources/Java/libraries/Wire/utility'
p36
aS'-I/Applications/Arduino.app/Contents/Resources/Java/hardware/arduino/cores/arduino'
p37
atp38
Rp39
tp40
a(S'build_dir'
p41
S'.build/uno'
p42
tp43
a(S'arduino_core_dir'
p44
g19
tp45
a(S'boards.txt'
p46
S'/Applications/Arduino.app/Contents/Resources/Java/hardware/arduino/boards.txt'
p47
tp48
a(S'cxxflags'
p49
g2
(g3
g4
(lp50
S'-fno-exceptions'
p51
atp52
Rp53
tp54
a(S'arduino_variants_dir'
p55
S'/Applications/Arduino.app/Contents/Resources/Java/hardware/arduino/variants'
p56
tp57
a(S'ar'
p58
S'/Applications/Arduino.app/Contents/Resources/Java/hardware/tools/avr/bin/avr-ar'
p59
tp60
a(S'names'
p61
(dp62
S'cpp'
p63
S'%s.cpp'
p64
sS'obj'
p65
S'%s.o'
p66
sS'deps'
p67
S'%s.d'
p68
sS'lib'
p69
S'lib%s.a'
p70
stp71
a(S'deps'
p72
g2
(g3
g4
(lp73
S'.build/uno/src/dependencies.d'
p74
aS'.build/uno/arduino/dependencies.d'
p75
aS'.build/uno/Servo/dependencies.d'
p76
aS'.build/uno/Wire/dependencies.d'
p77
atp78
Rp79
tp80
a(S'arduino_libraries_dir'
p81
S'/Applications/Arduino.app/Contents/Resources/Java/libraries'
p82
tp83
a(S'arduino_lib_version'
p84
g2
(cino.environment
Version
p85
c__builtin__
tuple
p86
(I1
I0
tp87
tp88
Rp89
tp90
a(S'objcopy'
p91
S'/Applications/Arduino.app/Contents/Resources/Java/hardware/tools/avr/bin/avr-objcopy'
p92
tp93
a(S'board_models'
p94
cino.environment
BoardModels
p95
((lp96
(lp97
S'uno'
p98
a(dp99
S'bootloader'
p100
(dp101
S'extended_fuses'
p102
S'0x05'
p103
sS'high_fuses'
p104
S'0xde'
p105
sS'low_fuses'
p106
S'0xff'
p107
sS'lock_bits'
p108
S'0x0F'
p109
sS'file'
p110
S'optiboot_atmega328.hex'
p111
sS'path'
p112
S'optiboot'
p113
sS'unlock_bits'
p114
S'0x3F'
p115
ssS'upload'
p116
(dp117
S'protocol'
p118
S'arduino'
p119
sS'maximum_size'
p120
S'32256'
p121
sS'speed'
p122
S'115200'
p123
ssS'build'
p124
(dp125
S'core'
p126
S'arduino'
p127
sS'mcu'
p128
S'atmega328p'
p129
sS'f_cpu'
p130
S'16000000L'
p131
sS'variant'
p132
S'standard'
p133
ssS'name'
p134
S'Arduino Uno'
p135
saa(lp136
S'atmega328'
p137
a(dp138
S'bootloader'
p139
(dp140
S'extended_fuses'
p141
S'0x05'
p142
sS'high_fuses'
p143
S'0xDA'
p144
sS'low_fuses'
p145
S'0xFF'
p146
sS'lock_bits'
p147
S'0x0F'
p148
sS'file'
p149
S'ATmegaBOOT_168_atmega328.hex'
p150
sS'path'
p151
S'atmega'
p152
sS'unlock_bits'
p153
S'0x3F'
p154
ssS'upload'
p155
(dp156
S'protocol'
p157
S'arduino'
p158
sS'maximum_size'
p159
S'30720'
p160
sS'speed'
p161
S'57600'
p162
ssS'build'
p163
(dp164
S'core'
p165
S'arduino'
p166
sS'mcu'
p167
S'atmega328p'
p168
sS'f_cpu'
p169
S'16000000L'
p170
sS'variant'
p171
S'standard'
p172
ssS'name'
p173
S'Arduino Duemilanove w/ ATmega328'
p174
saa(lp175
S'diecimila'
p176
a(dp177
S'bootloader'
p178
(dp179
S'extended_fuses'
p180
S'0x00'
p181
sS'high_fuses'
p182
S'0xdd'
p183
sS'low_fuses'
p184
S'0xff'
p185
sS'lock_bits'
p186
S'0x0F'
p187
sS'file'
p188
S'ATmegaBOOT_168_diecimila.hex'
p189
sS'path'
p190
S'atmega'
p191
sS'unlock_bits'
p192
S'0x3F'
p193
ssS'upload'
p194
(dp195
S'protocol'
p196
S'arduino'
p197
sS'maximum_size'
p198
S'14336'
p199
sS'speed'
p200
S'19200'
p201
ssS'build'
p202
(dp203
S'core'
p204
S'arduino'
p205
sS'mcu'
p206
S'atmega168'
p207
sS'f_cpu'
p208
S'16000000L'
p209
sS'variant'
p210
S'standard'
p211
ssS'name'
p212
S'Arduino Diecimila or Duemilanove w/ ATmega168'
p213
saa(lp214
S'nano328'
p215
a(dp216
S'bootloader'
p217
(dp218
S'extended_fuses'
p219
S'0x05'
p220
sS'high_fuses'
p221
S'0xDA'
p222
sS'low_fuses'
p223
S'0xFF'
p224
sS'lock_bits'
p225
S'0x0F'
p226
sS'file'
p227
S'ATmegaBOOT_168_atmega328.hex'
p228
sS'path'
p229
S'atmega'
p230
sS'unlock_bits'
p231
S'0x3F'
p232
ssS'upload'
p233
(dp234
S'protocol'
p235
S'arduino'
p236
sS'maximum_size'
p237
S'30720'
p238
sS'speed'
p239
S'57600'
p240
ssS'build'
p241
(dp242
S'core'
p243
S'arduino'
p244
sS'mcu'
p245
S'atmega328p'
p246
sS'f_cpu'
p247
S'16000000L'
p248
sS'variant'
p249
S'eightanaloginputs'
p250
ssS'name'
p251
S'Arduino Nano w/ ATmega328'
p252
saa(lp253
S'nano'
p254
a(dp255
S'bootloader'
p256
(dp257
S'extended_fuses'
p258
S'0x00'
p259
sS'high_fuses'
p260
S'0xdd'
p261
sS'low_fuses'
p262
S'0xff'
p263
sS'lock_bits'
p264
S'0x0F'
p265
sS'file'
p266
S'ATmegaBOOT_168_diecimila.hex'
p267
sS'path'
p268
S'atmega'
p269
sS'unlock_bits'
p270
S'0x3F'
p271
ssS'upload'
p272
(dp273
S'protocol'
p274
S'arduino'
p275
sS'maximum_size'
p276
S'14336'
p277
sS'speed'
p278
S'19200'
p279
ssS'build'
p280
(dp281
S'core'
p282
S'arduino'
p283
sS'mcu'
p284
S'atmega168'
p285
sS'f_cpu'
p286
S'16000000L'
p287
sS'variant'
p288
S'eightanaloginputs'
p289
ssS'name'
p290
S'Arduino Nano w/ ATmega168'
p291
saa(lp292
S'mega2560'
p293
a(dp294
S'bootloader'
p295
(dp296
S'extended_fuses'
p297
S'0xFD'
p298
sS'high_fuses'
p299
S'0xD8'
p300
sS'low_fuses'
p301
S'0xFF'
p302
sS'lock_bits'
p303
S'0x0F'
p304
sS'file'
p305
S'stk500boot_v2_mega2560.hex'
p306
sS'path'
p307
S'stk500v2'
p308
sS'unlock_bits'
p309
S'0x3F'
p310
ssS'upload'
p311
(dp312
S'protocol'
p313
S'stk500v2'
p314
sS'maximum_size'
p315
S'258048'
p316
sS'speed'
p317
S'115200'
p318
ssS'build'
p319
(dp320
S'core'
p321
S'arduino'
p322
sS'mcu'
p323
S'atmega2560'
p324
sS'f_cpu'
p325
S'16000000L'
p326
sS'variant'
p327
S'mega'
p328
ssS'name'
p329
S'Arduino Mega 2560 or Mega ADK'
p330
saa(lp331
S'mega'
p332
a(dp333
S'bootloader'
p334
(dp335
S'extended_fuses'
p336
S'0xF5'
p337
sS'high_fuses'
p338
S'0xDA'
p339
sS'low_fuses'
p340
S'0xFF'
p341
sS'lock_bits'
p342
S'0x0F'
p343
sS'file'
p344
S'ATmegaBOOT_168_atmega1280.hex'
p345
sS'path'
p346
S'atmega'
p347
sS'unlock_bits'
p348
S'0x3F'
p349
ssS'upload'
p350
(dp351
S'protocol'
p352
S'arduino'
p353
sS'maximum_size'
p354
S'126976'
p355
sS'speed'
p356
S'57600'
p357
ssS'build'
p358
(dp359
S'core'
p360
S'arduino'
p361
sS'mcu'
p362
S'atmega1280'
p363
sS'f_cpu'
p364
S'16000000L'
p365
sS'variant'
p366
S'mega'
p367
ssS'name'
p368
S'Arduino Mega (ATmega1280)'
p369
saa(lp370
S'leonardo'
p371
a(dp372
S'bootloader'
p373
(dp374
S'extended_fuses'
p375
S'0xcb'
p376
sS'high_fuses'
p377
S'0xd8'
p378
sS'low_fuses'
p379
S'0xff'
p380
sS'lock_bits'
p381
S'0x2F'
p382
sS'file'
p383
S'Caterina-Leonardo.hex'
p384
sS'path'
p385
S'caterina'
p386
sS'unlock_bits'
p387
S'0x3F'
p388
ssS'upload'
p389
(dp390
S'protocol'
p391
S'avr109'
p392
sS'maximum_size'
p393
S'28672'
p394
sS'speed'
p395
S'57600'
p396
sS'disable_flushing'
p397
S'true'
p398
ssS'build'
p399
(dp400
S'core'
p401
S'arduino'
p402
sS'f_cpu'
p403
S'16000000L'
p404
sS'vid'
p405
S'0x2341'
p406
sS'pid'
p407
S'0x8036'
p408
sS'variant'
p409
S'leonardo'
p410
sS'mcu'
p411
S'atmega32u4'
p412
ssS'name'
p413
S'Arduino Leonardo'
p414
saa(lp415
S'mini328'
p416
a(dp417
S'bootloader'
p418
(dp419
S'extended_fuses'
p420
S'0x05'
p421
sS'high_fuses'
p422
S'0xd8'
p423
sS'low_fuses'
p424
S'0xff'
p425
sS'lock_bits'
p426
S'0x0F'
p427
sS'file'
p428
S'optiboot_atmega328-Mini.hex'
p429
sS'path'
p430
S'optiboot'
p431
sS'unlock_bits'
p432
S'0x3F'
p433
ssS'upload'
p434
(dp435
S'protocol'
p436
S'arduino'
p437
sS'maximum_size'
p438
S'28672'
p439
sS'speed'
p440
S'115200'
p441
ssS'build'
p442
(dp443
S'core'
p444
S'arduino'
p445
sS'mcu'
p446
S'atmega328p'
p447
sS'f_cpu'
p448
S'16000000L'
p449
sS'variant'
p450
S'eightanaloginputs'
p451
ssS'name'
p452
S'Arduino Mini w/ ATmega328'
p453
saa(lp454
S'mini'
p455
a(dp456
S'bootloader'
p457
(dp458
S'extended_fuses'
p459
S'0x00'
p460
sS'high_fuses'
p461
S'0xdd'
p462
sS'low_fuses'
p463
S'0xff'
p464
sS'lock_bits'
p465
S'0x0F'
p466
sS'file'
p467
S'ATmegaBOOT_168_ng.hex'
p468
sS'path'
p469
S'atmega'
p470
sS'unlock_bits'
p471
S'0x3F'
p472
ssS'upload'
p473
(dp474
S'protocol'
p475
S'arduino'
p476
sS'maximum_size'
p477
S'14336'
p478
sS'speed'
p479
S'19200'
p480
ssS'build'
p481
(dp482
S'core'
p483
S'arduino'
p484
sS'mcu'
p485
S'atmega168'
p486
sS'f_cpu'
p487
S'16000000L'
p488
sS'variant'
p489
S'eightanaloginputs'
p490
ssS'name'
p491
S'Arduino Mini w/ ATmega168'
p492
saa(lp493
S'ethernet'
p494
a(dp495
S'bootloader'
p496
(dp497
S'extended_fuses'
p498
S'0x05'
p499
sS'high_fuses'
p500
S'0xde'
p501
sS'low_fuses'
p502
S'0xff'
p503
sS'lock_bits'
p504
S'0x0F'
p505
sS'file'
p506
S'optiboot_atmega328.hex'
p507
sS'path'
p508
S'optiboot'
p509
sS'unlock_bits'
p510
S'0x3F'
p511
ssS'upload'
p512
(dp513
S'protocol'
p514
S'arduino'
p515
sS'maximum_size'
p516
S'32256'
p517
sS'speed'
p518
S'115200'
p519
ssS'build'
p520
(dp521
S'variant'
p522
S'standard'
p523
sS'mcu'
p524
S'atmega328p'
p525
sS'f_cpu'
p526
S'16000000L'
p527
sS'core'
p528
S'arduino'
p529
ssS'name'
p530
S'Arduino Ethernet'
p531
saa(lp532
S'fio'
p533
a(dp534
S'bootloader'
p535
(dp536
S'extended_fuses'
p537
S'0x05'
p538
sS'high_fuses'
p539
S'0xDA'
p540
sS'low_fuses'
p541
S'0xFF'
p542
sS'lock_bits'
p543
S'0x0F'
p544
sS'file'
p545
S'ATmegaBOOT_168_atmega328_pro_8MHz.hex'
p546
sS'path'
p547
S'arduino:atmega'
p548
sS'unlock_bits'
p549
S'0x3F'
p550
ssS'upload'
p551
(dp552
S'protocol'
p553
S'arduino'
p554
sS'maximum_size'
p555
S'30720'
p556
sS'speed'
p557
S'57600'
p558
ssS'build'
p559
(dp560
S'core'
p561
S'arduino'
p562
sS'mcu'
p563
S'atmega328p'
p564
sS'f_cpu'
p565
S'8000000L'
p566
sS'variant'
p567
S'eightanaloginputs'
p568
ssS'name'
p569
S'Arduino Fio'
p570
saa(lp571
S'bt328'
p572
a(dp573
S'bootloader'
p574
(dp575
S'extended_fuses'
p576
S'0x05'
p577
sS'high_fuses'
p578
S'0xd8'
p579
sS'low_fuses'
p580
S'0xff'
p581
sS'lock_bits'
p582
S'0x0F'
p583
sS'file'
p584
S'ATmegaBOOT_168_atmega328_bt.hex'
p585
sS'path'
p586
S'bt'
p587
sS'unlock_bits'
p588
S'0x3F'
p589
ssS'upload'
p590
(dp591
S'protocol'
p592
S'arduino'
p593
sS'maximum_size'
p594
S'28672'
p595
sS'speed'
p596
S'19200'
p597
sS'disable_flushing'
p598
S'true'
p599
ssS'build'
p600
(dp601
S'core'
p602
S'arduino'
p603
sS'mcu'
p604
S'atmega328p'
p605
sS'f_cpu'
p606
S'16000000L'
p607
sS'variant'
p608
S'eightanaloginputs'
p609
ssS'name'
p610
S'Arduino BT w/ ATmega328'
p611
saa(lp612
S'bt'
p613
a(dp614
S'bootloader'
p615
(dp616
S'extended_fuses'
p617
S'0x00'
p618
sS'high_fuses'
p619
S'0xdd'
p620
sS'low_fuses'
p621
S'0xff'
p622
sS'lock_bits'
p623
S'0x0F'
p624
sS'file'
p625
S'ATmegaBOOT_168.hex'
p626
sS'path'
p627
S'bt'
p628
sS'unlock_bits'
p629
S'0x3F'
p630
ssS'upload'
p631
(dp632
S'protocol'
p633
S'arduino'
p634
sS'maximum_size'
p635
S'14336'
p636
sS'speed'
p637
S'19200'
p638
sS'disable_flushing'
p639
S'true'
p640
ssS'build'
p641
(dp642
S'core'
p643
S'arduino'
p644
sS'mcu'
p645
S'atmega168'
p646
sS'f_cpu'
p647
S'16000000L'
p648
sS'variant'
p649
S'eightanaloginputs'
p650
ssS'name'
p651
S'Arduino BT w/ ATmega168'
p652
saa(lp653
S'lilypad328'
p654
a(dp655
S'bootloader'
p656
(dp657
S'extended_fuses'
p658
S'0x05'
p659
sS'high_fuses'
p660
S'0xDA'
p661
sS'low_fuses'
p662
S'0xFF'
p663
sS'lock_bits'
p664
S'0x0F'
p665
sS'file'
p666
S'ATmegaBOOT_168_atmega328_pro_8MHz.hex'
p667
sS'path'
p668
S'atmega'
p669
sS'unlock_bits'
p670
S'0x3F'
p671
ssS'upload'
p672
(dp673
S'protocol'
p674
S'arduino'
p675
sS'maximum_size'
p676
S'30720'
p677
sS'speed'
p678
S'57600'
p679
ssS'build'
p680
(dp681
S'core'
p682
S'arduino'
p683
sS'mcu'
p684
S'atmega328p'
p685
sS'f_cpu'
p686
S'8000000L'
p687
sS'variant'
p688
S'standard'
p689
ssS'name'
p690
S'LilyPad Arduino w/ ATmega328'
p691
saa(lp692
S'lilypad'
p693
a(dp694
S'bootloader'
p695
(dp696
S'extended_fuses'
p697
S'0x00'
p698
sS'high_fuses'
p699
S'0xdd'
p700
sS'low_fuses'
p701
S'0xe2'
p702
sS'lock_bits'
p703
S'0x0F'
p704
sS'file'
p705
S'LilyPadBOOT_168.hex'
p706
sS'path'
p707
S'lilypad'
p708
sS'unlock_bits'
p709
S'0x3F'
p710
ssS'upload'
p711
(dp712
S'protocol'
p713
S'arduino'
p714
sS'maximum_size'
p715
S'14336'
p716
sS'speed'
p717
S'19200'
p718
ssS'build'
p719
(dp720
S'core'
p721
S'arduino'
p722
sS'mcu'
p723
S'atmega168'
p724
sS'f_cpu'
p725
S'8000000L'
p726
sS'variant'
p727
S'standard'
p728
ssS'name'
p729
S'LilyPad Arduino w/ ATmega168'
p730
saa(lp731
S'pro5v328'
p732
a(dp733
S'bootloader'
p734
(dp735
S'extended_fuses'
p736
S'0x05'
p737
sS'high_fuses'
p738
S'0xDA'
p739
sS'low_fuses'
p740
S'0xFF'
p741
sS'lock_bits'
p742
S'0x0F'
p743
sS'file'
p744
S'ATmegaBOOT_168_atmega328.hex'
p745
sS'path'
p746
S'atmega'
p747
sS'unlock_bits'
p748
S'0x3F'
p749
ssS'upload'
p750
(dp751
S'protocol'
p752
S'arduino'
p753
sS'maximum_size'
p754
S'30720'
p755
sS'speed'
p756
S'57600'
p757
ssS'build'
p758
(dp759
S'core'
p760
S'arduino'
p761
sS'mcu'
p762
S'atmega328p'
p763
sS'f_cpu'
p764
S'16000000L'
p765
sS'variant'
p766
S'standard'
p767
ssS'name'
p768
S'Arduino Pro or Pro Mini (5V, 16 MHz) w/ ATmega328'
p769
saa(lp770
S'pro5v'
p771
a(dp772
S'bootloader'
p773
(dp774
S'extended_fuses'
p775
S'0x00'
p776
sS'high_fuses'
p777
S'0xdd'
p778
sS'low_fuses'
p779
S'0xff'
p780
sS'lock_bits'
p781
S'0x0F'
p782
sS'file'
p783
S'ATmegaBOOT_168_diecimila.hex'
p784
sS'path'
p785
S'atmega'
p786
sS'unlock_bits'
p787
S'0x3F'
p788
ssS'upload'
p789
(dp790
S'protocol'
p791
S'arduino'
p792
sS'maximum_size'
p793
S'14336'
p794
sS'speed'
p795
S'19200'
p796
ssS'build'
p797
(dp798
S'core'
p799
S'arduino'
p800
sS'mcu'
p801
S'atmega168'
p802
sS'f_cpu'
p803
S'16000000L'
p804
sS'variant'
p805
S'standard'
p806
ssS'name'
p807
S'Arduino Pro or Pro Mini (5V, 16 MHz) w/ ATmega168'
p808
saa(lp809
S'pro328'
p810
a(dp811
S'bootloader'
p812
(dp813
S'extended_fuses'
p814
S'0x05'
p815
sS'high_fuses'
p816
S'0xDA'
p817
sS'low_fuses'
p818
S'0xFF'
p819
sS'lock_bits'
p820
S'0x0F'
p821
sS'file'
p822
S'ATmegaBOOT_168_atmega328_pro_8MHz.hex'
p823
sS'path'
p824
S'atmega'
p825
sS'unlock_bits'
p826
S'0x3F'
p827
ssS'upload'
p828
(dp829
S'protocol'
p830
S'arduino'
p831
sS'maximum_size'
p832
S'30720'
p833
sS'speed'
p834
S'57600'
p835
ssS'build'
p836
(dp837
S'core'
p838
S'arduino'
p839
sS'mcu'
p840
S'atmega328p'
p841
sS'f_cpu'
p842
S'8000000L'
p843
sS'variant'
p844
S'standard'
p845
ssS'name'
p846
S'Arduino Pro or Pro Mini (3.3V, 8 MHz) w/ ATmega328'
p847
saa(lp848
S'pro'
p849
a(dp850
S'bootloader'
p851
(dp852
S'extended_fuses'
p853
S'0x00'
p854
sS'high_fuses'
p855
S'0xdd'
p856
sS'low_fuses'
p857
S'0xc6'
p858
sS'lock_bits'
p859
S'0x0F'
p860
sS'file'
p861
S'ATmegaBOOT_168_pro_8MHz.hex'
p862
sS'path'
p863
S'atmega'
p864
sS'unlock_bits'
p865
S'0x3F'
p866
ssS'upload'
p867
(dp868
S'protocol'
p869
S'arduino'
p870
sS'maximum_size'
p871
S'14336'
p872
sS'speed'
p873
S'19200'
p874
ssS'build'
p875
(dp876
S'core'
p877
S'arduino'
p878
sS'mcu'
p879
S'atmega168'
p880
sS'f_cpu'
p881
S'8000000L'
p882
sS'variant'
p883
S'standard'
p884
ssS'name'
p885
S'Arduino Pro or Pro Mini (3.3V, 8 MHz) w/ ATmega168'
p886
saa(lp887
S'atmega168'
p888
a(dp889
S'bootloader'
p890
(dp891
S'extended_fuses'
p892
S'0x00'
p893
sS'high_fuses'
p894
S'0xdd'
p895
sS'low_fuses'
p896
S'0xff'
p897
sS'lock_bits'
p898
S'0x0F'
p899
sS'file'
p900
S'ATmegaBOOT_168_ng.hex'
p901
sS'path'
p902
S'atmega'
p903
sS'unlock_bits'
p904
S'0x3F'
p905
ssS'upload'
p906
(dp907
S'protocol'
p908
S'arduino'
p909
sS'maximum_size'
p910
S'14336'
p911
sS'speed'
p912
S'19200'
p913
ssS'build'
p914
(dp915
S'core'
p916
S'arduino'
p917
sS'mcu'
p918
S'atmega168'
p919
sS'f_cpu'
p920
S'16000000L'
p921
sS'variant'
p922
S'standard'
p923
ssS'name'
p924
S'Arduino NG or older w/ ATmega168'
p925
saa(lp926
S'atmega8'
p927
a(dp928
S'bootloader'
p929
(dp930
S'high_fuses'
p931
S'0xca'
p932
sS'low_fuses'
p933
S'0xdf'
p934
sS'lock_bits'
p935
S'0x0F'
p936
sS'file'
p937
S'ATmegaBOOT.hex'
p938
sS'path'
p939
S'atmega8'
p940
sS'unlock_bits'
p941
S'0x3F'
p942
ssS'upload'
p943
(dp944
S'protocol'
p945
S'arduino'
p946
sS'maximum_size'
p947
S'7168'
p948
sS'speed'
p949
S'19200'
p950
ssS'build'
p951
(dp952
S'core'
p953
S'arduino'
p954
sS'mcu'
p955
S'atmega8'
p956
sS'f_cpu'
p957
S'16000000L'
p958
sS'variant'
p959
S'standard'
p960
ssS'name'
p961
S'Arduino NG or older w/ ATmega8'
p962
saatp963
Rp964
(dp965
S'default'
p966
S'uno'
p967
sbtp968
a(S'cxx'
p969
S'/Applications/Arduino.app/Contents/Resources/Java/hardware/tools/avr/bin/avr-g++'
p970
tp971
a.