(lp0
(S'elfflags'
p1
ccopy_reg
_reconstructor
p2
(cino.utils
SpaceList
p3
c__builtin__
list
p4
(lp5
S'-Os'
p6
aS'-Wl,--gc-sections'
p7
aS'-mmcu=atmega328p'
p8
atp9
Rp10
tp11
a(S'version.txt'
p12
S'/Applications/Arduino.app/Contents/Resources/Java/lib/version.txt'
p13
tp14
a(S'cc'
p15
S'/Applications/Arduino.app/Contents/Resources/Java/hardware/tools/avr/bin/avr-gcc'
p16
tp17
a(S'cflags'
p18
g2
(g3
g4
(lp19
g8
aS'-ffunction-sections'
p20
aS'-fdata-sections'
p21
aS'-g'
p22
ag6
aS'-w'
p23
aS'-DF_CPU=16000000L'
p24
aS'-DARDUINO=100'
p25
aS'-I/Applications/Arduino.app/Contents/Resources/Java/hardware/arduino/cores/arduino'
p26
aS'-I/Applications/Arduino.app/Contents/Resources/Java/hardware/arduino/variants/standard'
p27
atp28
Rp29
tp30
a(S'build_dir'
p31
S'.build/uno'
p32
tp33
a(S'arduino_core_dir'
p34
S'/Applications/Arduino.app/Contents/Resources/Java/hardware/arduino/cores/arduino'
p35
tp36
a(S'boards.txt'
p37
S'/Applications/Arduino.app/Contents/Resources/Java/hardware/arduino/boards.txt'
p38
tp39
a(S'cxxflags'
p40
g2
(g3
g4
(lp41
S'-fno-exceptions'
p42
atp43
Rp44
tp45
a(S'arduino_variants_dir'
p46
S'/Applications/Arduino.app/Contents/Resources/Java/hardware/arduino/variants'
p47
tp48
a(S'ar'
p49
S'/Applications/Arduino.app/Contents/Resources/Java/hardware/tools/avr/bin/avr-ar'
p50
tp51
a(S'names'
p52
(dp53
S'cpp'
p54
S'%s.cpp'
p55
sS'obj'
p56
S'%s.o'
p57
sS'deps'
p58
S'%s.d'
p59
sS'lib'
p60
S'lib%s.a'
p61
stp62
a(S'deps'
p63
g2
(g3
g4
(lp64
tp65
Rp66
tp67
a(S'arduino_libraries_dir'
p68
S'/Applications/Arduino.app/Contents/Resources/Java/libraries'
p69
tp70
a(S'arduino_lib_version'
p71
g2
(cino.environment
Version
p72
c__builtin__
tuple
p73
(I1
I0
tp74
tp75
Rp76
tp77
a(S'objcopy'
p78
S'/Applications/Arduino.app/Contents/Resources/Java/hardware/tools/avr/bin/avr-objcopy'
p79
tp80
a(S'board_models'
p81
cino.environment
BoardModels
p82
((lp83
(lp84
S'uno'
p85
a(dp86
S'bootloader'
p87
(dp88
S'extended_fuses'
p89
S'0x05'
p90
sS'high_fuses'
p91
S'0xde'
p92
sS'low_fuses'
p93
S'0xff'
p94
sS'lock_bits'
p95
S'0x0F'
p96
sS'file'
p97
S'optiboot_atmega328.hex'
p98
sS'path'
p99
S'optiboot'
p100
sS'unlock_bits'
p101
S'0x3F'
p102
ssS'upload'
p103
(dp104
S'protocol'
p105
S'arduino'
p106
sS'maximum_size'
p107
S'32256'
p108
sS'speed'
p109
S'115200'
p110
ssS'build'
p111
(dp112
S'core'
p113
S'arduino'
p114
sS'mcu'
p115
S'atmega328p'
p116
sS'f_cpu'
p117
S'16000000L'
p118
sS'variant'
p119
S'standard'
p120
ssS'name'
p121
S'Arduino Uno'
p122
saa(lp123
S'atmega328'
p124
a(dp125
S'bootloader'
p126
(dp127
S'extended_fuses'
p128
S'0x05'
p129
sS'high_fuses'
p130
S'0xDA'
p131
sS'low_fuses'
p132
S'0xFF'
p133
sS'lock_bits'
p134
S'0x0F'
p135
sS'file'
p136
S'ATmegaBOOT_168_atmega328.hex'
p137
sS'path'
p138
S'atmega'
p139
sS'unlock_bits'
p140
S'0x3F'
p141
ssS'upload'
p142
(dp143
S'protocol'
p144
S'arduino'
p145
sS'maximum_size'
p146
S'30720'
p147
sS'speed'
p148
S'57600'
p149
ssS'build'
p150
(dp151
S'core'
p152
S'arduino'
p153
sS'mcu'
p154
S'atmega328p'
p155
sS'f_cpu'
p156
S'16000000L'
p157
sS'variant'
p158
S'standard'
p159
ssS'name'
p160
S'Arduino Duemilanove w/ ATmega328'
p161
saa(lp162
S'diecimila'
p163
a(dp164
S'bootloader'
p165
(dp166
S'extended_fuses'
p167
S'0x00'
p168
sS'high_fuses'
p169
S'0xdd'
p170
sS'low_fuses'
p171
S'0xff'
p172
sS'lock_bits'
p173
S'0x0F'
p174
sS'file'
p175
S'ATmegaBOOT_168_diecimila.hex'
p176
sS'path'
p177
S'atmega'
p178
sS'unlock_bits'
p179
S'0x3F'
p180
ssS'upload'
p181
(dp182
S'protocol'
p183
S'arduino'
p184
sS'maximum_size'
p185
S'14336'
p186
sS'speed'
p187
S'19200'
p188
ssS'build'
p189
(dp190
S'core'
p191
S'arduino'
p192
sS'mcu'
p193
S'atmega168'
p194
sS'f_cpu'
p195
S'16000000L'
p196
sS'variant'
p197
S'standard'
p198
ssS'name'
p199
S'Arduino Diecimila or Duemilanove w/ ATmega168'
p200
saa(lp201
S'nano328'
p202
a(dp203
S'bootloader'
p204
(dp205
S'extended_fuses'
p206
S'0x05'
p207
sS'high_fuses'
p208
S'0xDA'
p209
sS'low_fuses'
p210
S'0xFF'
p211
sS'lock_bits'
p212
S'0x0F'
p213
sS'file'
p214
S'ATmegaBOOT_168_atmega328.hex'
p215
sS'path'
p216
S'atmega'
p217
sS'unlock_bits'
p218
S'0x3F'
p219
ssS'upload'
p220
(dp221
S'protocol'
p222
S'arduino'
p223
sS'maximum_size'
p224
S'30720'
p225
sS'speed'
p226
S'57600'
p227
ssS'build'
p228
(dp229
S'core'
p230
S'arduino'
p231
sS'mcu'
p232
S'atmega328p'
p233
sS'f_cpu'
p234
S'16000000L'
p235
sS'variant'
p236
S'eightanaloginputs'
p237
ssS'name'
p238
S'Arduino Nano w/ ATmega328'
p239
saa(lp240
S'nano'
p241
a(dp242
S'bootloader'
p243
(dp244
S'extended_fuses'
p245
S'0x00'
p246
sS'high_fuses'
p247
S'0xdd'
p248
sS'low_fuses'
p249
S'0xff'
p250
sS'lock_bits'
p251
S'0x0F'
p252
sS'file'
p253
S'ATmegaBOOT_168_diecimila.hex'
p254
sS'path'
p255
S'atmega'
p256
sS'unlock_bits'
p257
S'0x3F'
p258
ssS'upload'
p259
(dp260
S'protocol'
p261
S'arduino'
p262
sS'maximum_size'
p263
S'14336'
p264
sS'speed'
p265
S'19200'
p266
ssS'build'
p267
(dp268
S'core'
p269
S'arduino'
p270
sS'mcu'
p271
S'atmega168'
p272
sS'f_cpu'
p273
S'16000000L'
p274
sS'variant'
p275
S'eightanaloginputs'
p276
ssS'name'
p277
S'Arduino Nano w/ ATmega168'
p278
saa(lp279
S'mega2560'
p280
a(dp281
S'bootloader'
p282
(dp283
S'extended_fuses'
p284
S'0xFD'
p285
sS'high_fuses'
p286
S'0xD8'
p287
sS'low_fuses'
p288
S'0xFF'
p289
sS'lock_bits'
p290
S'0x0F'
p291
sS'file'
p292
S'stk500boot_v2_mega2560.hex'
p293
sS'path'
p294
S'stk500v2'
p295
sS'unlock_bits'
p296
S'0x3F'
p297
ssS'upload'
p298
(dp299
S'protocol'
p300
S'stk500v2'
p301
sS'maximum_size'
p302
S'258048'
p303
sS'speed'
p304
S'115200'
p305
ssS'build'
p306
(dp307
S'core'
p308
S'arduino'
p309
sS'mcu'
p310
S'atmega2560'
p311
sS'f_cpu'
p312
S'16000000L'
p313
sS'variant'
p314
S'mega'
p315
ssS'name'
p316
S'Arduino Mega 2560 or Mega ADK'
p317
saa(lp318
S'mega'
p319
a(dp320
S'bootloader'
p321
(dp322
S'extended_fuses'
p323
S'0xF5'
p324
sS'high_fuses'
p325
S'0xDA'
p326
sS'low_fuses'
p327
S'0xFF'
p328
sS'lock_bits'
p329
S'0x0F'
p330
sS'file'
p331
S'ATmegaBOOT_168_atmega1280.hex'
p332
sS'path'
p333
S'atmega'
p334
sS'unlock_bits'
p335
S'0x3F'
p336
ssS'upload'
p337
(dp338
S'protocol'
p339
S'arduino'
p340
sS'maximum_size'
p341
S'126976'
p342
sS'speed'
p343
S'57600'
p344
ssS'build'
p345
(dp346
S'core'
p347
S'arduino'
p348
sS'mcu'
p349
S'atmega1280'
p350
sS'f_cpu'
p351
S'16000000L'
p352
sS'variant'
p353
S'mega'
p354
ssS'name'
p355
S'Arduino Mega (ATmega1280)'
p356
saa(lp357
S'leonardo'
p358
a(dp359
S'bootloader'
p360
(dp361
S'extended_fuses'
p362
S'0xcb'
p363
sS'high_fuses'
p364
S'0xd8'
p365
sS'low_fuses'
p366
S'0xff'
p367
sS'lock_bits'
p368
S'0x2F'
p369
sS'file'
p370
S'Caterina-Leonardo.hex'
p371
sS'path'
p372
S'caterina'
p373
sS'unlock_bits'
p374
S'0x3F'
p375
ssS'upload'
p376
(dp377
S'protocol'
p378
S'avr109'
p379
sS'maximum_size'
p380
S'28672'
p381
sS'speed'
p382
S'57600'
p383
sS'disable_flushing'
p384
S'true'
p385
ssS'build'
p386
(dp387
S'core'
p388
S'arduino'
p389
sS'f_cpu'
p390
S'16000000L'
p391
sS'vid'
p392
S'0x2341'
p393
sS'pid'
p394
S'0x8036'
p395
sS'variant'
p396
S'leonardo'
p397
sS'mcu'
p398
S'atmega32u4'
p399
ssS'name'
p400
S'Arduino Leonardo'
p401
saa(lp402
S'mini328'
p403
a(dp404
S'bootloader'
p405
(dp406
S'extended_fuses'
p407
S'0x05'
p408
sS'high_fuses'
p409
S'0xd8'
p410
sS'low_fuses'
p411
S'0xff'
p412
sS'lock_bits'
p413
S'0x0F'
p414
sS'file'
p415
S'optiboot_atmega328-Mini.hex'
p416
sS'path'
p417
S'optiboot'
p418
sS'unlock_bits'
p419
S'0x3F'
p420
ssS'upload'
p421
(dp422
S'protocol'
p423
S'arduino'
p424
sS'maximum_size'
p425
S'28672'
p426
sS'speed'
p427
S'115200'
p428
ssS'build'
p429
(dp430
S'core'
p431
S'arduino'
p432
sS'mcu'
p433
S'atmega328p'
p434
sS'f_cpu'
p435
S'16000000L'
p436
sS'variant'
p437
S'eightanaloginputs'
p438
ssS'name'
p439
S'Arduino Mini w/ ATmega328'
p440
saa(lp441
S'mini'
p442
a(dp443
S'bootloader'
p444
(dp445
S'extended_fuses'
p446
S'0x00'
p447
sS'high_fuses'
p448
S'0xdd'
p449
sS'low_fuses'
p450
S'0xff'
p451
sS'lock_bits'
p452
S'0x0F'
p453
sS'file'
p454
S'ATmegaBOOT_168_ng.hex'
p455
sS'path'
p456
S'atmega'
p457
sS'unlock_bits'
p458
S'0x3F'
p459
ssS'upload'
p460
(dp461
S'protocol'
p462
S'arduino'
p463
sS'maximum_size'
p464
S'14336'
p465
sS'speed'
p466
S'19200'
p467
ssS'build'
p468
(dp469
S'core'
p470
S'arduino'
p471
sS'mcu'
p472
S'atmega168'
p473
sS'f_cpu'
p474
S'16000000L'
p475
sS'variant'
p476
S'eightanaloginputs'
p477
ssS'name'
p478
S'Arduino Mini w/ ATmega168'
p479
saa(lp480
S'ethernet'
p481
a(dp482
S'bootloader'
p483
(dp484
S'extended_fuses'
p485
S'0x05'
p486
sS'high_fuses'
p487
S'0xde'
p488
sS'low_fuses'
p489
S'0xff'
p490
sS'lock_bits'
p491
S'0x0F'
p492
sS'file'
p493
S'optiboot_atmega328.hex'
p494
sS'path'
p495
S'optiboot'
p496
sS'unlock_bits'
p497
S'0x3F'
p498
ssS'upload'
p499
(dp500
S'protocol'
p501
S'arduino'
p502
sS'maximum_size'
p503
S'32256'
p504
sS'speed'
p505
S'115200'
p506
ssS'build'
p507
(dp508
S'variant'
p509
S'standard'
p510
sS'mcu'
p511
S'atmega328p'
p512
sS'f_cpu'
p513
S'16000000L'
p514
sS'core'
p515
S'arduino'
p516
ssS'name'
p517
S'Arduino Ethernet'
p518
saa(lp519
S'fio'
p520
a(dp521
S'bootloader'
p522
(dp523
S'extended_fuses'
p524
S'0x05'
p525
sS'high_fuses'
p526
S'0xDA'
p527
sS'low_fuses'
p528
S'0xFF'
p529
sS'lock_bits'
p530
S'0x0F'
p531
sS'file'
p532
S'ATmegaBOOT_168_atmega328_pro_8MHz.hex'
p533
sS'path'
p534
S'arduino:atmega'
p535
sS'unlock_bits'
p536
S'0x3F'
p537
ssS'upload'
p538
(dp539
S'protocol'
p540
S'arduino'
p541
sS'maximum_size'
p542
S'30720'
p543
sS'speed'
p544
S'57600'
p545
ssS'build'
p546
(dp547
S'core'
p548
S'arduino'
p549
sS'mcu'
p550
S'atmega328p'
p551
sS'f_cpu'
p552
S'8000000L'
p553
sS'variant'
p554
S'eightanaloginputs'
p555
ssS'name'
p556
S'Arduino Fio'
p557
saa(lp558
S'bt328'
p559
a(dp560
S'bootloader'
p561
(dp562
S'extended_fuses'
p563
S'0x05'
p564
sS'high_fuses'
p565
S'0xd8'
p566
sS'low_fuses'
p567
S'0xff'
p568
sS'lock_bits'
p569
S'0x0F'
p570
sS'file'
p571
S'ATmegaBOOT_168_atmega328_bt.hex'
p572
sS'path'
p573
S'bt'
p574
sS'unlock_bits'
p575
S'0x3F'
p576
ssS'upload'
p577
(dp578
S'protocol'
p579
S'arduino'
p580
sS'maximum_size'
p581
S'28672'
p582
sS'speed'
p583
S'19200'
p584
sS'disable_flushing'
p585
S'true'
p586
ssS'build'
p587
(dp588
S'core'
p589
S'arduino'
p590
sS'mcu'
p591
S'atmega328p'
p592
sS'f_cpu'
p593
S'16000000L'
p594
sS'variant'
p595
S'eightanaloginputs'
p596
ssS'name'
p597
S'Arduino BT w/ ATmega328'
p598
saa(lp599
S'bt'
p600
a(dp601
S'bootloader'
p602
(dp603
S'extended_fuses'
p604
S'0x00'
p605
sS'high_fuses'
p606
S'0xdd'
p607
sS'low_fuses'
p608
S'0xff'
p609
sS'lock_bits'
p610
S'0x0F'
p611
sS'file'
p612
S'ATmegaBOOT_168.hex'
p613
sS'path'
p614
S'bt'
p615
sS'unlock_bits'
p616
S'0x3F'
p617
ssS'upload'
p618
(dp619
S'protocol'
p620
S'arduino'
p621
sS'maximum_size'
p622
S'14336'
p623
sS'speed'
p624
S'19200'
p625
sS'disable_flushing'
p626
S'true'
p627
ssS'build'
p628
(dp629
S'core'
p630
S'arduino'
p631
sS'mcu'
p632
S'atmega168'
p633
sS'f_cpu'
p634
S'16000000L'
p635
sS'variant'
p636
S'eightanaloginputs'
p637
ssS'name'
p638
S'Arduino BT w/ ATmega168'
p639
saa(lp640
S'lilypad328'
p641
a(dp642
S'bootloader'
p643
(dp644
S'extended_fuses'
p645
S'0x05'
p646
sS'high_fuses'
p647
S'0xDA'
p648
sS'low_fuses'
p649
S'0xFF'
p650
sS'lock_bits'
p651
S'0x0F'
p652
sS'file'
p653
S'ATmegaBOOT_168_atmega328_pro_8MHz.hex'
p654
sS'path'
p655
S'atmega'
p656
sS'unlock_bits'
p657
S'0x3F'
p658
ssS'upload'
p659
(dp660
S'protocol'
p661
S'arduino'
p662
sS'maximum_size'
p663
S'30720'
p664
sS'speed'
p665
S'57600'
p666
ssS'build'
p667
(dp668
S'core'
p669
S'arduino'
p670
sS'mcu'
p671
S'atmega328p'
p672
sS'f_cpu'
p673
S'8000000L'
p674
sS'variant'
p675
S'standard'
p676
ssS'name'
p677
S'LilyPad Arduino w/ ATmega328'
p678
saa(lp679
S'lilypad'
p680
a(dp681
S'bootloader'
p682
(dp683
S'extended_fuses'
p684
S'0x00'
p685
sS'high_fuses'
p686
S'0xdd'
p687
sS'low_fuses'
p688
S'0xe2'
p689
sS'lock_bits'
p690
S'0x0F'
p691
sS'file'
p692
S'LilyPadBOOT_168.hex'
p693
sS'path'
p694
S'lilypad'
p695
sS'unlock_bits'
p696
S'0x3F'
p697
ssS'upload'
p698
(dp699
S'protocol'
p700
S'arduino'
p701
sS'maximum_size'
p702
S'14336'
p703
sS'speed'
p704
S'19200'
p705
ssS'build'
p706
(dp707
S'core'
p708
S'arduino'
p709
sS'mcu'
p710
S'atmega168'
p711
sS'f_cpu'
p712
S'8000000L'
p713
sS'variant'
p714
S'standard'
p715
ssS'name'
p716
S'LilyPad Arduino w/ ATmega168'
p717
saa(lp718
S'pro5v328'
p719
a(dp720
S'bootloader'
p721
(dp722
S'extended_fuses'
p723
S'0x05'
p724
sS'high_fuses'
p725
S'0xDA'
p726
sS'low_fuses'
p727
S'0xFF'
p728
sS'lock_bits'
p729
S'0x0F'
p730
sS'file'
p731
S'ATmegaBOOT_168_atmega328.hex'
p732
sS'path'
p733
S'atmega'
p734
sS'unlock_bits'
p735
S'0x3F'
p736
ssS'upload'
p737
(dp738
S'protocol'
p739
S'arduino'
p740
sS'maximum_size'
p741
S'30720'
p742
sS'speed'
p743
S'57600'
p744
ssS'build'
p745
(dp746
S'core'
p747
S'arduino'
p748
sS'mcu'
p749
S'atmega328p'
p750
sS'f_cpu'
p751
S'16000000L'
p752
sS'variant'
p753
S'standard'
p754
ssS'name'
p755
S'Arduino Pro or Pro Mini (5V, 16 MHz) w/ ATmega328'
p756
saa(lp757
S'pro5v'
p758
a(dp759
S'bootloader'
p760
(dp761
S'extended_fuses'
p762
S'0x00'
p763
sS'high_fuses'
p764
S'0xdd'
p765
sS'low_fuses'
p766
S'0xff'
p767
sS'lock_bits'
p768
S'0x0F'
p769
sS'file'
p770
S'ATmegaBOOT_168_diecimila.hex'
p771
sS'path'
p772
S'atmega'
p773
sS'unlock_bits'
p774
S'0x3F'
p775
ssS'upload'
p776
(dp777
S'protocol'
p778
S'arduino'
p779
sS'maximum_size'
p780
S'14336'
p781
sS'speed'
p782
S'19200'
p783
ssS'build'
p784
(dp785
S'core'
p786
S'arduino'
p787
sS'mcu'
p788
S'atmega168'
p789
sS'f_cpu'
p790
S'16000000L'
p791
sS'variant'
p792
S'standard'
p793
ssS'name'
p794
S'Arduino Pro or Pro Mini (5V, 16 MHz) w/ ATmega168'
p795
saa(lp796
S'pro328'
p797
a(dp798
S'bootloader'
p799
(dp800
S'extended_fuses'
p801
S'0x05'
p802
sS'high_fuses'
p803
S'0xDA'
p804
sS'low_fuses'
p805
S'0xFF'
p806
sS'lock_bits'
p807
S'0x0F'
p808
sS'file'
p809
S'ATmegaBOOT_168_atmega328_pro_8MHz.hex'
p810
sS'path'
p811
S'atmega'
p812
sS'unlock_bits'
p813
S'0x3F'
p814
ssS'upload'
p815
(dp816
S'protocol'
p817
S'arduino'
p818
sS'maximum_size'
p819
S'30720'
p820
sS'speed'
p821
S'57600'
p822
ssS'build'
p823
(dp824
S'core'
p825
S'arduino'
p826
sS'mcu'
p827
S'atmega328p'
p828
sS'f_cpu'
p829
S'8000000L'
p830
sS'variant'
p831
S'standard'
p832
ssS'name'
p833
S'Arduino Pro or Pro Mini (3.3V, 8 MHz) w/ ATmega328'
p834
saa(lp835
S'pro'
p836
a(dp837
S'bootloader'
p838
(dp839
S'extended_fuses'
p840
S'0x00'
p841
sS'high_fuses'
p842
S'0xdd'
p843
sS'low_fuses'
p844
S'0xc6'
p845
sS'lock_bits'
p846
S'0x0F'
p847
sS'file'
p848
S'ATmegaBOOT_168_pro_8MHz.hex'
p849
sS'path'
p850
S'atmega'
p851
sS'unlock_bits'
p852
S'0x3F'
p853
ssS'upload'
p854
(dp855
S'protocol'
p856
S'arduino'
p857
sS'maximum_size'
p858
S'14336'
p859
sS'speed'
p860
S'19200'
p861
ssS'build'
p862
(dp863
S'core'
p864
S'arduino'
p865
sS'mcu'
p866
S'atmega168'
p867
sS'f_cpu'
p868
S'8000000L'
p869
sS'variant'
p870
S'standard'
p871
ssS'name'
p872
S'Arduino Pro or Pro Mini (3.3V, 8 MHz) w/ ATmega168'
p873
saa(lp874
S'atmega168'
p875
a(dp876
S'bootloader'
p877
(dp878
S'extended_fuses'
p879
S'0x00'
p880
sS'high_fuses'
p881
S'0xdd'
p882
sS'low_fuses'
p883
S'0xff'
p884
sS'lock_bits'
p885
S'0x0F'
p886
sS'file'
p887
S'ATmegaBOOT_168_ng.hex'
p888
sS'path'
p889
S'atmega'
p890
sS'unlock_bits'
p891
S'0x3F'
p892
ssS'upload'
p893
(dp894
S'protocol'
p895
S'arduino'
p896
sS'maximum_size'
p897
S'14336'
p898
sS'speed'
p899
S'19200'
p900
ssS'build'
p901
(dp902
S'core'
p903
S'arduino'
p904
sS'mcu'
p905
S'atmega168'
p906
sS'f_cpu'
p907
S'16000000L'
p908
sS'variant'
p909
S'standard'
p910
ssS'name'
p911
S'Arduino NG or older w/ ATmega168'
p912
saa(lp913
S'atmega8'
p914
a(dp915
S'bootloader'
p916
(dp917
S'high_fuses'
p918
S'0xca'
p919
sS'low_fuses'
p920
S'0xdf'
p921
sS'lock_bits'
p922
S'0x0F'
p923
sS'file'
p924
S'ATmegaBOOT.hex'
p925
sS'path'
p926
S'atmega8'
p927
sS'unlock_bits'
p928
S'0x3F'
p929
ssS'upload'
p930
(dp931
S'protocol'
p932
S'arduino'
p933
sS'maximum_size'
p934
S'7168'
p935
sS'speed'
p936
S'19200'
p937
ssS'build'
p938
(dp939
S'core'
p940
S'arduino'
p941
sS'mcu'
p942
S'atmega8'
p943
sS'f_cpu'
p944
S'16000000L'
p945
sS'variant'
p946
S'standard'
p947
ssS'name'
p948
S'Arduino NG or older w/ ATmega8'
p949
saatp950
Rp951
(dp952
S'default'
p953
S'uno'
p954
sbtp955
a(S'cxx'
p956
S'/Applications/Arduino.app/Contents/Resources/Java/hardware/tools/avr/bin/avr-g++'
p957
tp958
a.